---
triple:          'x86_64-apple-darwin'
binary-path:     projeto3
relocations:
  - { offsetInCU: 0x3F, offset: 0x3F, size: 0x8, addend: 0x0, symName: _FILENAME, symObjAddr: 0x8F74, symBinAddr: 0x10000B000, symSize: 0x0 }
  - { offsetInCU: 0x6E, offset: 0x6E, size: 0x8, addend: 0x0, symName: _BUFFER, symObjAddr: 0x8F84, symBinAddr: 0x10000B010, symSize: 0x0 }
  - { offsetInCU: 0x889C, offset: 0x889C, size: 0x8, addend: 0x0, symName: __ZNSt3__124__put_character_sequenceB8ue170006IcNS_11char_traitsIcEEEERNS_13basic_ostreamIT_T0_EES7_PKS4_m, symObjAddr: 0x82C0, symBinAddr: 0x100008D80, symSize: 0x1F0 }
  - { offsetInCU: 0xA41F, offset: 0xA41F, size: 0x8, addend: 0x0, symName: __ZNSt3__1plB8ue170006IcNS_11char_traitsIcEENS_9allocatorIcEEEENS_12basic_stringIT_T0_T1_EEOS9_PKS6_, symObjAddr: 0x540, symBinAddr: 0x100001000, symSize: 0x50 }
  - { offsetInCU: 0xA477, offset: 0xA477, size: 0x8, addend: 0x0, symName: __ZNSt3__1plB8ue170006IcNS_11char_traitsIcEENS_9allocatorIcEEEENS_12basic_stringIT_T0_T1_EEOS9_SA_, symObjAddr: 0x590, symBinAddr: 0x100001050, symSize: 0x50 }
  - { offsetInCU: 0xA4CF, offset: 0xA4CF, size: 0x8, addend: 0x0, symName: __ZNSt3__1plB8ue170006IcNS_11char_traitsIcEENS_9allocatorIcEEEENS_12basic_stringIT_T0_T1_EEPKS6_OS9_, symObjAddr: 0x5E0, symBinAddr: 0x1000010A0, symSize: 0x50 }
  - { offsetInCU: 0xA532, offset: 0xA532, size: 0x8, addend: 0x0, symName: '__ZNSt3__16any_ofB8ue170006INS_11__wrap_iterIPiEEZ4mainE3$_0EEbT_S5_T0_', symObjAddr: 0x1550, symBinAddr: 0x100002010, symSize: 0x80 }
  - { offsetInCU: 0xA58C, offset: 0xA58C, size: 0x8, addend: 0x0, symName: __ZNSt3__14endlB8ue170006IcNS_11char_traitsIcEEEERNS_13basic_ostreamIT_T0_EES7_, symObjAddr: 0x1650, symBinAddr: 0x100002110, symSize: 0x50 }
  - { offsetInCU: 0xA5CC, offset: 0xA5CC, size: 0x8, addend: 0x0, symName: __ZNSt3__1lsB8ue170006IcNS_11char_traitsIcEENS_9allocatorIcEEEERNS_13basic_ostreamIT_T0_EES9_RKNS_12basic_stringIS6_S7_T1_EE, symObjAddr: 0x16A0, symBinAddr: 0x100002160, symSize: 0x50 }
  - { offsetInCU: 0xA624, offset: 0xA624, size: 0x8, addend: 0x0, symName: __ZNSt3__122__make_exception_guardB8ue170006INS_6vectorIiNS_9allocatorIiEEE16__destroy_vectorEEENS_28__exception_guard_exceptionsIT_EES7_, symObjAddr: 0x1990, symBinAddr: 0x100002450, symSize: 0x40 }
  - { offsetInCU: 0xA659, offset: 0xA659, size: 0x8, addend: 0x0, symName: __ZNSt3__119__allocate_at_leastB8ue170006INS_9allocatorIiEEEENS_19__allocation_resultINS_16allocator_traitsIT_E7pointerEEERS5_m, symObjAddr: 0x1C60, symBinAddr: 0x100002720, symSize: 0x40 }
  - { offsetInCU: 0xA69C, offset: 0xA69C, size: 0x8, addend: 0x0, symName: __ZNSt3__13minB8ue170006ImEERKT_S3_S3_, symObjAddr: 0x1D90, symBinAddr: 0x100002850, symSize: 0x30 }
  - { offsetInCU: 0xA8C9, offset: 0xA8C9, size: 0x8, addend: 0x0, symName: __ZNSt3__13minB8ue170006ImNS_6__lessIvvEEEERKT_S5_S5_T0_, symObjAddr: 0x1E00, symBinAddr: 0x1000028C0, symSize: 0x50 }
  - { offsetInCU: 0xA968, offset: 0xA968, size: 0x8, addend: 0x0, symName: __ZNSt3__120__throw_length_errorB8ue170006EPKc, symObjAddr: 0x1EB0, symBinAddr: 0x100002970, symSize: 0x70 }
  - { offsetInCU: 0xA992, offset: 0xA992, size: 0x8, addend: 0x0, symName: __ZNSt3__117__libcpp_allocateB8ue170006Emm, symObjAddr: 0x2020, symBinAddr: 0x100002AE0, symSize: 0x60 }
  - { offsetInCU: 0xA9EC, offset: 0xA9EC, size: 0x8, addend: 0x0, symName: __ZNSt3__124__is_overaligned_for_newB8ue170006Em, symObjAddr: 0x2080, symBinAddr: 0x100002B40, symSize: 0x20 }
  - { offsetInCU: 0xAA1A, offset: 0xAA1A, size: 0x8, addend: 0x0, symName: __ZNSt3__121__libcpp_operator_newB8ue170006IJmSt11align_val_tEEEPvDpT_, symObjAddr: 0x20A0, symBinAddr: 0x100002B60, symSize: 0x30 }
  - { offsetInCU: 0xAA67, offset: 0xAA67, size: 0x8, addend: 0x0, symName: __ZNSt3__121__libcpp_operator_newB8ue170006IJmEEEPvDpT_, symObjAddr: 0x20D0, symBinAddr: 0x100002B90, symSize: 0x20 }
  - { offsetInCU: 0xAAA0, offset: 0xAAA0, size: 0x8, addend: 0x0, symName: __ZNSt3__112__to_addressB8ue170006IiEEPT_S2_, symObjAddr: 0x21C0, symBinAddr: 0x100002C80, symSize: 0x10 }
  - { offsetInCU: 0xAAD5, offset: 0xAAD5, size: 0x8, addend: 0x0, symName: __ZNSt3__130__uninitialized_allocator_copyB8ue170006INS_9allocatorIiEEPiS3_S3_EET2_RT_T0_T1_S4_, symObjAddr: 0x2250, symBinAddr: 0x100002D10, symSize: 0x80 }
  - { offsetInCU: 0xAB72, offset: 0xAB72, size: 0x8, addend: 0x0, symName: __ZNSt3__114__unwrap_rangeB8ue170006IPiS1_EENS_4pairIT0_S3_EET_S5_, symObjAddr: 0x2330, symBinAddr: 0x100002DF0, symSize: 0x50 }
  - { offsetInCU: 0xABBE, offset: 0xABBE, size: 0x8, addend: 0x0, symName: __ZNSt3__135__uninitialized_allocator_copy_implB8ue170006INS_9allocatorIiEEiiiLPv0EEEPT2_RT_PT0_S9_S5_, symObjAddr: 0x2380, symBinAddr: 0x100002E40, symSize: 0x30 }
  - { offsetInCU: 0xAC3F, offset: 0xAC3F, size: 0x8, addend: 0x0, symName: __ZNSt3__113__unwrap_iterB8ue170006IPiNS_18__unwrap_iter_implIS1_Lb1EEELi0EEEDTclsrT0_8__unwrapclsr3stdE7declvalIT_EEEES5_, symObjAddr: 0x23B0, symBinAddr: 0x100002E70, symSize: 0x20 }
  - { offsetInCU: 0xAC83, offset: 0xAC83, size: 0x8, addend: 0x0, symName: __ZNSt3__113__rewrap_iterB8ue170006IPiS1_NS_18__unwrap_iter_implIS1_Lb1EEEEET_S4_T0_, symObjAddr: 0x23D0, symBinAddr: 0x100002E90, symSize: 0x40 }
  - { offsetInCU: 0xACD8, offset: 0xACD8, size: 0x8, addend: 0x0, symName: __ZNSt3__19make_pairB8ue170006IPiS1_EENS_4pairINS_18__unwrap_ref_decayIT_E4typeENS3_IT0_E4typeEEEOS4_OS7_, symObjAddr: 0x2410, symBinAddr: 0x100002ED0, symSize: 0x30 }
  - { offsetInCU: 0xAE2A, offset: 0xAE2A, size: 0x8, addend: 0x0, symName: __ZNSt3__14copyB8ue170006IPiS1_EET0_T_S3_S2_, symObjAddr: 0x24A0, symBinAddr: 0x100002F60, symSize: 0x40 }
  - { offsetInCU: 0xAE84, offset: 0xAE84, size: 0x8, addend: 0x0, symName: __ZNSt3__16__copyB8ue170006INS_17_ClassicAlgPolicyEPiS2_S2_EENS_4pairIT0_T2_EES4_T1_S5_, symObjAddr: 0x24E0, symBinAddr: 0x100002FA0, symSize: 0x40 }
  - { offsetInCU: 0xAEF0, offset: 0xAEF0, size: 0x8, addend: 0x0, symName: __ZNSt3__123__dispatch_copy_or_moveB8ue170006INS_17_ClassicAlgPolicyENS_11__copy_loopIS1_EENS_14__copy_trivialEPiS5_S5_EENS_4pairIT2_T4_EES7_T3_S8_, symObjAddr: 0x2520, symBinAddr: 0x100002FE0, symSize: 0x40 }
  - { offsetInCU: 0xAF6E, offset: 0xAF6E, size: 0x8, addend: 0x0, symName: __ZNSt3__121__unwrap_and_dispatchB8ue170006INS_10__overloadINS_11__copy_loopINS_17_ClassicAlgPolicyEEENS_14__copy_trivialEEEPiS7_S7_Li0EEENS_4pairIT0_T2_EES9_T1_SA_, symObjAddr: 0x2560, symBinAddr: 0x100003020, symSize: 0xB0 }
  - { offsetInCU: 0xB043, offset: 0xB043, size: 0x8, addend: 0x0, symName: __ZNSt3__114__rewrap_rangeB8ue170006IPiS1_EET_S2_T0_, symObjAddr: 0x2650, symBinAddr: 0x100003110, symSize: 0x30 }
  - { offsetInCU: 0xB08F, offset: 0xB08F, size: 0x8, addend: 0x0, symName: __ZNSt3__119__copy_trivial_implB8ue170006IiiEENS_4pairIPT_PT0_EES3_S3_S5_, symObjAddr: 0x2680, symBinAddr: 0x100003140, symSize: 0x70 }
  - { offsetInCU: 0xB0F7, offset: 0xB0F7, size: 0x8, addend: 0x0, symName: __ZNSt3__119__constexpr_memmoveB8ue170006IiiLi0EEEPT_S2_PT0_NS_15__element_countE, symObjAddr: 0x26F0, symBinAddr: 0x1000031B0, symSize: 0x50 }
  - { offsetInCU: 0xB165, offset: 0xB165, size: 0x8, addend: 0x0, symName: __ZNSt3__19make_pairB8ue170006IRPiS1_EENS_4pairINS_18__unwrap_ref_decayIT_E4typeENS4_IT0_E4typeEEEOS5_OS8_, symObjAddr: 0x2740, symBinAddr: 0x100003200, symSize: 0x30 }
  - { offsetInCU: 0xB207, offset: 0xB207, size: 0x8, addend: 0x0, symName: __ZNSt3__119__libcpp_deallocateB8ue170006EPvmm, symObjAddr: 0x2B20, symBinAddr: 0x1000035E0, symSize: 0x60 }
  - { offsetInCU: 0xB26C, offset: 0xB26C, size: 0x8, addend: 0x0, symName: __ZNSt3__127__do_deallocate_handle_sizeB8ue170006IJSt11align_val_tEEEvPvmDpT_, symObjAddr: 0x2B80, symBinAddr: 0x100003640, symSize: 0x30 }
  - { offsetInCU: 0xB2BF, offset: 0xB2BF, size: 0x8, addend: 0x0, symName: __ZNSt3__127__do_deallocate_handle_sizeB8ue170006IJEEEvPvmDpT_, symObjAddr: 0x2BB0, symBinAddr: 0x100003670, symSize: 0x20 }
  - { offsetInCU: 0xB2FD, offset: 0xB2FD, size: 0x8, addend: 0x0, symName: __ZNSt3__124__libcpp_operator_deleteB8ue170006IJPvSt11align_val_tEEEvDpT_, symObjAddr: 0x2BD0, symBinAddr: 0x100003690, symSize: 0x30 }
  - { offsetInCU: 0xB346, offset: 0xB346, size: 0x8, addend: 0x0, symName: __ZNSt3__124__libcpp_operator_deleteB8ue170006IJPvEEEvDpT_, symObjAddr: 0x2C00, symBinAddr: 0x1000036C0, symSize: 0x20 }
  - { offsetInCU: 0xB37B, offset: 0xB37B, size: 0x8, addend: 0x0, symName: __ZNSt3__112__to_addressB8ue170006IKcEEPT_S3_, symObjAddr: 0x2E30, symBinAddr: 0x1000038F0, symSize: 0x10 }
  - { offsetInCU: 0xB3E3, offset: 0xB3E3, size: 0x8, addend: 0x0, symName: __ZNSt3__122__make_exception_guardB8ue170006INS_6vectorINS1_IiNS_9allocatorIiEEEENS2_IS4_EEE16__destroy_vectorEEENS_28__exception_guard_exceptionsIT_EES9_, symObjAddr: 0x3350, symBinAddr: 0x100003E10, symSize: 0x40 }
  - { offsetInCU: 0xB418, offset: 0xB418, size: 0x8, addend: 0x0, symName: __ZNSt3__119__allocate_at_leastB8ue170006INS_9allocatorINS_6vectorIiNS1_IiEEEEEEEENS_19__allocation_resultINS_16allocator_traitsIT_E7pointerEEERS8_m, symObjAddr: 0x3700, symBinAddr: 0x1000041C0, symSize: 0x40 }
  - { offsetInCU: 0xB45B, offset: 0xB45B, size: 0x8, addend: 0x0, symName: __ZNSt3__112__to_addressB8ue170006INS_6vectorIiNS_9allocatorIiEEEEEEPT_S6_, symObjAddr: 0x39E0, symBinAddr: 0x1000044A0, symSize: 0x10 }
  - { offsetInCU: 0xB490, offset: 0xB490, size: 0x8, addend: 0x0, symName: __ZNSt3__122__make_exception_guardB8ue170006INS_6vectorINS1_INS1_IiNS_9allocatorIiEEEENS2_IS4_EEEENS2_IS6_EEE16__destroy_vectorEEENS_28__exception_guard_exceptionsIT_EESB_, symObjAddr: 0x4000, symBinAddr: 0x100004AC0, symSize: 0x40 }
  - { offsetInCU: 0xB4C5, offset: 0xB4C5, size: 0x8, addend: 0x0, symName: __ZNSt3__119__allocate_at_leastB8ue170006INS_9allocatorINS_6vectorINS2_IiNS1_IiEEEENS1_IS4_EEEEEEEENS_19__allocation_resultINS_16allocator_traitsIT_E7pointerEEERSA_m, symObjAddr: 0x43B0, symBinAddr: 0x100004E70, symSize: 0x40 }
  - { offsetInCU: 0xB508, offset: 0xB508, size: 0x8, addend: 0x0, symName: __ZNSt3__112__to_addressB8ue170006INS_6vectorINS1_IiNS_9allocatorIiEEEENS2_IS4_EEEEEEPT_S8_, symObjAddr: 0x4690, symBinAddr: 0x100005150, symSize: 0x10 }
  - { offsetInCU: 0xB53D, offset: 0xB53D, size: 0x8, addend: 0x0, symName: __ZNSt3__130__uninitialized_allocator_copyB8ue170006INS_9allocatorINS_6vectorIiNS1_IiEEEEEEPS4_S6_S6_EET2_RT_T0_T1_S7_, symObjAddr: 0x4A80, symBinAddr: 0x100005540, symSize: 0x80 }
  - { offsetInCU: 0xB5DA, offset: 0xB5DA, size: 0x8, addend: 0x0, symName: __ZNSt3__114__unwrap_rangeB8ue170006IPNS_6vectorIiNS_9allocatorIiEEEES5_EENS_4pairIT0_S7_EET_S9_, symObjAddr: 0x4B00, symBinAddr: 0x1000055C0, symSize: 0x50 }
  - { offsetInCU: 0xB626, offset: 0xB626, size: 0x8, addend: 0x0, symName: __ZNSt3__135__uninitialized_allocator_copy_implB8ue170006INS_9allocatorINS_6vectorIiNS1_IiEEEEEEPS4_S6_S6_EET2_RT_T0_T1_S7_, symObjAddr: 0x4B50, symBinAddr: 0x100005610, symSize: 0x100 }
  - { offsetInCU: 0xB6C4, offset: 0xB6C4, size: 0x8, addend: 0x0, symName: __ZNSt3__113__unwrap_iterB8ue170006IPNS_6vectorIiNS_9allocatorIiEEEENS_18__unwrap_iter_implIS5_Lb1EEELi0EEEDTclsrT0_8__unwrapclsr3stdE7declvalIT_EEEES9_, symObjAddr: 0x4C50, symBinAddr: 0x100005710, symSize: 0x20 }
  - { offsetInCU: 0xB708, offset: 0xB708, size: 0x8, addend: 0x0, symName: __ZNSt3__113__rewrap_iterB8ue170006IPNS_6vectorIiNS_9allocatorIiEEEES5_NS_18__unwrap_iter_implIS5_Lb1EEEEET_S8_T0_, symObjAddr: 0x4C70, symBinAddr: 0x100005730, symSize: 0x40 }
  - { offsetInCU: 0xB75D, offset: 0xB75D, size: 0x8, addend: 0x0, symName: __ZNSt3__19make_pairB8ue170006IPNS_6vectorIiNS_9allocatorIiEEEES5_EENS_4pairINS_18__unwrap_ref_decayIT_E4typeENS7_IT0_E4typeEEEOS8_OSB_, symObjAddr: 0x4CB0, symBinAddr: 0x100005770, symSize: 0x30 }
  - { offsetInCU: 0xB880, offset: 0xB880, size: 0x8, addend: 0x0, symName: __ZNSt3__122__make_exception_guardB8ue170006INS_29_AllocatorDestroyRangeReverseINS_9allocatorINS_6vectorIiNS2_IiEEEEEEPS5_EEEENS_28__exception_guard_exceptionsIT_EESA_, symObjAddr: 0x4D40, symBinAddr: 0x100005800, symSize: 0x60 }
  - { offsetInCU: 0xB8B5, offset: 0xB8B5, size: 0x8, addend: 0x0, symName: __ZNSt3__119__allocator_destroyB8ue170006INS_9allocatorINS_6vectorIiNS1_IiEEEEEENS_16reverse_iteratorIPS4_EES8_EEvRT_T0_T1_, symObjAddr: 0x4FD0, symBinAddr: 0x100005A90, symSize: 0x70 }
  - { offsetInCU: 0xB918, offset: 0xB918, size: 0x8, addend: 0x0, symName: __ZNSt3__1neB8ue170006IPNS_6vectorIiNS_9allocatorIiEEEES5_EEbRKNS_16reverse_iteratorIT_EERKNS6_IT0_EE, symObjAddr: 0x5070, symBinAddr: 0x100005B30, symSize: 0x40 }
  - { offsetInCU: 0xB964, offset: 0xB964, size: 0x8, addend: 0x0, symName: __ZNSt3__112__to_addressB8ue170006INS_16reverse_iteratorIPNS_6vectorIiNS_9allocatorIiEEEEEEvEEu7__decayIDTclsr19__to_address_helperIT_EE6__callclsr3stdE7declvalIRKS8_EEEEESA_, symObjAddr: 0x50B0, symBinAddr: 0x100005B70, symSize: 0x20 }
  - { offsetInCU: 0xBA16, offset: 0xBA16, size: 0x8, addend: 0x0, symName: __ZNSt3__122__make_exception_guardB8ue170006INS_6vectorINS1_INS1_INS1_IiNS_9allocatorIiEEEENS2_IS4_EEEENS2_IS6_EEEENS2_IS8_EEE16__destroy_vectorEEENS_28__exception_guard_exceptionsIT_EESD_, symObjAddr: 0x56D0, symBinAddr: 0x100006190, symSize: 0x40 }
  - { offsetInCU: 0xBA4B, offset: 0xBA4B, size: 0x8, addend: 0x0, symName: __ZNSt3__119__allocate_at_leastB8ue170006INS_9allocatorINS_6vectorINS2_INS2_IiNS1_IiEEEENS1_IS4_EEEENS1_IS6_EEEEEEEENS_19__allocation_resultINS_16allocator_traitsIT_E7pointerEEERSC_m, symObjAddr: 0x5A80, symBinAddr: 0x100006540, symSize: 0x40 }
  - { offsetInCU: 0xBA8E, offset: 0xBA8E, size: 0x8, addend: 0x0, symName: __ZNSt3__112__to_addressB8ue170006INS_6vectorINS1_INS1_IiNS_9allocatorIiEEEENS2_IS4_EEEENS2_IS6_EEEEEEPT_SA_, symObjAddr: 0x5D60, symBinAddr: 0x100006820, symSize: 0x10 }
  - { offsetInCU: 0xBAC3, offset: 0xBAC3, size: 0x8, addend: 0x0, symName: __ZNSt3__130__uninitialized_allocator_copyB8ue170006INS_9allocatorINS_6vectorINS2_IiNS1_IiEEEENS1_IS4_EEEEEEPS6_S8_S8_EET2_RT_T0_T1_S9_, symObjAddr: 0x6150, symBinAddr: 0x100006C10, symSize: 0x80 }
  - { offsetInCU: 0xBB60, offset: 0xBB60, size: 0x8, addend: 0x0, symName: __ZNSt3__114__unwrap_rangeB8ue170006IPNS_6vectorINS1_IiNS_9allocatorIiEEEENS2_IS4_EEEES7_EENS_4pairIT0_S9_EET_SB_, symObjAddr: 0x61D0, symBinAddr: 0x100006C90, symSize: 0x50 }
  - { offsetInCU: 0xBBAC, offset: 0xBBAC, size: 0x8, addend: 0x0, symName: __ZNSt3__135__uninitialized_allocator_copy_implB8ue170006INS_9allocatorINS_6vectorINS2_IiNS1_IiEEEENS1_IS4_EEEEEEPS6_S8_S8_EET2_RT_T0_T1_S9_, symObjAddr: 0x6220, symBinAddr: 0x100006CE0, symSize: 0x100 }
  - { offsetInCU: 0xBC4A, offset: 0xBC4A, size: 0x8, addend: 0x0, symName: __ZNSt3__113__unwrap_iterB8ue170006IPNS_6vectorINS1_IiNS_9allocatorIiEEEENS2_IS4_EEEENS_18__unwrap_iter_implIS7_Lb1EEELi0EEEDTclsrT0_8__unwrapclsr3stdE7declvalIT_EEEESB_, symObjAddr: 0x6320, symBinAddr: 0x100006DE0, symSize: 0x20 }
  - { offsetInCU: 0xBC8E, offset: 0xBC8E, size: 0x8, addend: 0x0, symName: __ZNSt3__113__rewrap_iterB8ue170006IPNS_6vectorINS1_IiNS_9allocatorIiEEEENS2_IS4_EEEES7_NS_18__unwrap_iter_implIS7_Lb1EEEEET_SA_T0_, symObjAddr: 0x6340, symBinAddr: 0x100006E00, symSize: 0x40 }
  - { offsetInCU: 0xBCE3, offset: 0xBCE3, size: 0x8, addend: 0x0, symName: __ZNSt3__19make_pairB8ue170006IPNS_6vectorINS1_IiNS_9allocatorIiEEEENS2_IS4_EEEES7_EENS_4pairINS_18__unwrap_ref_decayIT_E4typeENS9_IT0_E4typeEEEOSA_OSD_, symObjAddr: 0x6380, symBinAddr: 0x100006E40, symSize: 0x30 }
  - { offsetInCU: 0xBE06, offset: 0xBE06, size: 0x8, addend: 0x0, symName: __ZNSt3__122__make_exception_guardB8ue170006INS_29_AllocatorDestroyRangeReverseINS_9allocatorINS_6vectorINS3_IiNS2_IiEEEENS2_IS5_EEEEEEPS7_EEEENS_28__exception_guard_exceptionsIT_EESC_, symObjAddr: 0x6410, symBinAddr: 0x100006ED0, symSize: 0x60 }
  - { offsetInCU: 0xBE3B, offset: 0xBE3B, size: 0x8, addend: 0x0, symName: __ZNSt3__119__allocator_destroyB8ue170006INS_9allocatorINS_6vectorINS2_IiNS1_IiEEEENS1_IS4_EEEEEENS_16reverse_iteratorIPS6_EESA_EEvRT_T0_T1_, symObjAddr: 0x66A0, symBinAddr: 0x100007160, symSize: 0x70 }
  - { offsetInCU: 0xBE9E, offset: 0xBE9E, size: 0x8, addend: 0x0, symName: __ZNSt3__1neB8ue170006IPNS_6vectorINS1_IiNS_9allocatorIiEEEENS2_IS4_EEEES7_EEbRKNS_16reverse_iteratorIT_EERKNS8_IT0_EE, symObjAddr: 0x6740, symBinAddr: 0x100007200, symSize: 0x40 }
  - { offsetInCU: 0xBEEA, offset: 0xBEEA, size: 0x8, addend: 0x0, symName: __ZNSt3__112__to_addressB8ue170006INS_16reverse_iteratorIPNS_6vectorINS2_IiNS_9allocatorIiEEEENS3_IS5_EEEEEEvEEu7__decayIDTclsr19__to_address_helperIT_EE6__callclsr3stdE7declvalIRKSA_EEEEESC_, symObjAddr: 0x6780, symBinAddr: 0x100007240, symSize: 0x20 }
  - { offsetInCU: 0xBF9C, offset: 0xBF9C, size: 0x8, addend: 0x0, symName: __ZNSt3__13maxB8ue170006ImEERKT_S3_S3_, symObjAddr: 0x7060, symBinAddr: 0x100007B20, symSize: 0x30 }
  - { offsetInCU: 0xBFDF, offset: 0xBFDF, size: 0x8, addend: 0x0, symName: __ZNSt3__13maxB8ue170006ImNS_6__lessIvvEEEERKT_S5_S5_T0_, symObjAddr: 0x7090, symBinAddr: 0x100007B50, symSize: 0x50 }
  - { offsetInCU: 0xC039, offset: 0xC039, size: 0x8, addend: 0x0, symName: __ZNSt3__142__uninitialized_allocator_move_if_noexceptB8ue170006INS_9allocatorIiEENS_16reverse_iteratorIPiEES5_ivEET1_RT_T0_S9_S6_, symObjAddr: 0x72E0, symBinAddr: 0x100007DA0, symSize: 0x70 }
  - { offsetInCU: 0xC0B5, offset: 0xC0B5, size: 0x8, addend: 0x0, symName: __ZNSt3__14swapB8ue170006IPiEENS_9enable_ifIXaasr21is_move_constructibleIT_EE5valuesr18is_move_assignableIS3_EE5valueEvE4typeERS3_S6_, symObjAddr: 0x73A0, symBinAddr: 0x100007E60, symSize: 0x40 }
  - { offsetInCU: 0xC106, offset: 0xC106, size: 0x8, addend: 0x0, symName: __ZNSt3__14moveB8ue170006INS_16reverse_iteratorIPiEES3_EET0_T_S5_S4_, symObjAddr: 0x73E0, symBinAddr: 0x100007EA0, symSize: 0x80 }
  - { offsetInCU: 0xC160, offset: 0xC160, size: 0x8, addend: 0x0, symName: __ZNSt3__16__moveB8ue170006INS_17_ClassicAlgPolicyENS_16reverse_iteratorIPiEES4_S4_EENS_4pairIT0_T2_EES6_T1_S7_, symObjAddr: 0x7460, symBinAddr: 0x100007F20, symSize: 0x90 }
  - { offsetInCU: 0xC1CC, offset: 0xC1CC, size: 0x8, addend: 0x0, symName: __ZNSt3__123__dispatch_copy_or_moveB8ue170006INS_17_ClassicAlgPolicyENS_11__move_loopIS1_EENS_14__move_trivialENS_16reverse_iteratorIPiEES7_S7_EENS_4pairIT2_T4_EES9_T3_SA_, symObjAddr: 0x74F0, symBinAddr: 0x100007FB0, symSize: 0x90 }
  - { offsetInCU: 0xC24A, offset: 0xC24A, size: 0x8, addend: 0x0, symName: __ZNSt3__121__unwrap_and_dispatchB8ue170006INS_10__overloadINS_11__move_loopINS_17_ClassicAlgPolicyEEENS_14__move_trivialEEENS_16reverse_iteratorIPiEES9_S9_Li0EEENS_4pairIT0_T2_EESB_T1_SC_, symObjAddr: 0x7580, symBinAddr: 0x100008040, symSize: 0x210 }
  - { offsetInCU: 0xC2D9, offset: 0xC2D9, size: 0x8, addend: 0x0, symName: __ZNSt3__114__unwrap_rangeB8ue170006INS_16reverse_iteratorIPiEES3_EENS_4pairIT0_S5_EET_S7_, symObjAddr: 0x7790, symBinAddr: 0x100008250, symSize: 0x90 }
  - { offsetInCU: 0xC454, offset: 0xC454, size: 0x8, addend: 0x0, symName: __ZNSt3__113__unwrap_iterB8ue170006INS_16reverse_iteratorIPiEENS_18__unwrap_iter_implIS3_Lb0EEELi0EEEDTclsrT0_8__unwrapclsr3stdE7declvalIT_EEEES7_, symObjAddr: 0x78C0, symBinAddr: 0x100008380, symSize: 0x40 }
  - { offsetInCU: 0xC498, offset: 0xC498, size: 0x8, addend: 0x0, symName: __ZNSt3__19make_pairB8ue170006INS_16reverse_iteratorIPiEES3_EENS_4pairINS_18__unwrap_ref_decayIT_E4typeENS5_IT0_E4typeEEEOS6_OS9_, symObjAddr: 0x7900, symBinAddr: 0x1000083C0, symSize: 0x30 }
  - { offsetInCU: 0xC4E7, offset: 0xC4E7, size: 0x8, addend: 0x0, symName: __ZNSt3__114__rewrap_rangeB8ue170006INS_16reverse_iteratorIPiEES3_EET_S4_T0_, symObjAddr: 0x7930, symBinAddr: 0x1000083F0, symSize: 0x60 }
  - { offsetInCU: 0xC533, offset: 0xC533, size: 0x8, addend: 0x0, symName: __ZNSt3__113__rewrap_iterB8ue170006INS_16reverse_iteratorIPiEES3_NS_18__unwrap_iter_implIS3_Lb0EEEEET_S6_T0_, symObjAddr: 0x7990, symBinAddr: 0x100008450, symSize: 0x70 }
  - { offsetInCU: 0xC588, offset: 0xC588, size: 0x8, addend: 0x0, symName: __ZNSt3__1neB8ue170006IPiS1_EEbRKNS_16reverse_iteratorIT_EERKNS2_IT0_EE, symObjAddr: 0x7A00, symBinAddr: 0x1000084C0, symSize: 0x40 }
  - { offsetInCU: 0xC686, offset: 0xC686, size: 0x8, addend: 0x0, symName: __ZNSt3__1neB8ue170006IPiEEbRKNS_11__wrap_iterIT_EES6_, symObjAddr: 0x7F90, symBinAddr: 0x100008A50, symSize: 0x30 }
  - { offsetInCU: 0xC6C9, offset: 0xC6C9, size: 0x8, addend: 0x0, symName: __ZNSt3__1eqB8ue170006IPiEEbRKNS_11__wrap_iterIT_EES6_, symObjAddr: 0x8020, symBinAddr: 0x100008AE0, symSize: 0x40 }
  - { offsetInCU: 0xC70C, offset: 0xC70C, size: 0x8, addend: 0x0, symName: __ZNSt3__19use_facetB8ue170006INS_5ctypeIcEEEERKT_RKNS_6localeE, symObjAddr: 0x8100, symBinAddr: 0x100008BC0, symSize: 0x30 }
  - { offsetInCU: 0xCBD9, offset: 0xCBD9, size: 0x8, addend: 0x0, symName: __ZNSt3__118__constexpr_strlenB8ue170006EPKc, symObjAddr: 0x82A0, symBinAddr: 0x100008D60, symSize: 0x20 }
  - { offsetInCU: 0xCC05, offset: 0xCC05, size: 0x8, addend: 0x0, symName: __ZNSt3__116__pad_and_outputB8ue170006IcNS_11char_traitsIcEEEENS_19ostreambuf_iteratorIT_T0_EES6_PKS4_S8_S8_RNS_8ios_baseES4_, symObjAddr: 0x84D0, symBinAddr: 0x100008F90, symSize: 0x220 }
  - { offsetInCU: 0xCCD5, offset: 0xCCD5, size: 0x8, addend: 0x0, symName: __ZNSt3__112__to_addressB8ue170006IcEEPT_S2_, symObjAddr: 0x8930, symBinAddr: 0x1000093F0, symSize: 0x10 }
  - { offsetInCU: 0xD2DD, offset: 0xD2DD, size: 0x8, addend: 0x0, symName: __ZSt28__throw_bad_array_new_lengthB8ue170006v, symObjAddr: 0x1FE0, symBinAddr: 0x100002AA0, symSize: 0x40 }
  - { offsetInCU: 0xDB6E, offset: 0xDB6E, size: 0x8, addend: 0x0, symName: __ZNSt3__16vectorIiNS_9allocatorIiEEE26__swap_out_circular_bufferERNS_14__split_bufferIiRS2_EE, symObjAddr: 0x6F20, symBinAddr: 0x1000079E0, symSize: 0x120 }
  - { offsetInCU: 0x1007D, offset: 0x1007D, size: 0x8, addend: 0x0, symName: __Z3trcRKNSt3__16vectorINS0_INS0_INS0_IiNS_9allocatorIiEEEENS1_IS3_EEEENS1_IS5_EEEENS1_IS7_EEEEiNS_12basic_stringIcNS_11char_traitsIcEENS1_IcEEEEiibRS3_, symObjAddr: 0x0, symBinAddr: 0x100000AC0, symSize: 0x490 }
  - { offsetInCU: 0x10158, offset: 0x10158, size: 0x8, addend: 0x0, symName: __ZNSt3__16vectorIiNS_9allocatorIiEEEixB8ue170006Em, symObjAddr: 0x490, symBinAddr: 0x100000F50, symSize: 0x20 }
  - { offsetInCU: 0x1018D, offset: 0x1018D, size: 0x8, addend: 0x0, symName: __ZNKSt3__16vectorINS0_INS0_INS0_IiNS_9allocatorIiEEEENS1_IS3_EEEENS1_IS5_EEEENS1_IS7_EEEixB8ue170006Em, symObjAddr: 0x4B0, symBinAddr: 0x100000F70, symSize: 0x20 }
  - { offsetInCU: 0x101C2, offset: 0x101C2, size: 0x8, addend: 0x0, symName: __ZNKSt3__16vectorINS0_INS0_IiNS_9allocatorIiEEEENS1_IS3_EEEENS1_IS5_EEEixB8ue170006Em, symObjAddr: 0x4D0, symBinAddr: 0x100000F90, symSize: 0x20 }
  - { offsetInCU: 0x101F7, offset: 0x101F7, size: 0x8, addend: 0x0, symName: __ZNKSt3__16vectorINS0_IiNS_9allocatorIiEEEENS1_IS3_EEEixB8ue170006Em, symObjAddr: 0x4F0, symBinAddr: 0x100000FB0, symSize: 0x20 }
  - { offsetInCU: 0x1022D, offset: 0x1022D, size: 0x8, addend: 0x0, symName: __ZNSt3__16vectorIiNS_9allocatorIiEEEC1ERKS3_, symObjAddr: 0x510, symBinAddr: 0x100000FD0, symSize: 0x30 }
  - { offsetInCU: 0x10267, offset: 0x10267, size: 0x8, addend: 0x0, symName: __ZNSt3__16vectorIiNS_9allocatorIiEEED1B8ue170006Ev, symObjAddr: 0x630, symBinAddr: 0x1000010F0, symSize: 0x20 }
  - { offsetInCU: 0x10290, offset: 0x10290, size: 0x8, addend: 0x0, symName: _main, symObjAddr: 0x650, symBinAddr: 0x100001110, symSize: 0xC70 }
  - { offsetInCU: 0x104F2, offset: 0x104F2, size: 0x8, addend: 0x0, symName: __ZNSt3__19basic_iosIcNS_11char_traitsIcEEE3tieB8ue170006EPNS_13basic_ostreamIcS2_EE, symObjAddr: 0x12C0, symBinAddr: 0x100001D80, symSize: 0x30 }
  - { offsetInCU: 0x10537, offset: 0x10537, size: 0x8, addend: 0x0, symName: __ZNSt3__16vectorIiNS_9allocatorIiEEEC1Em, symObjAddr: 0x12F0, symBinAddr: 0x100001DB0, symSize: 0x30 }
  - { offsetInCU: 0x10571, offset: 0x10571, size: 0x8, addend: 0x0, symName: __ZNSt3__16vectorINS0_IiNS_9allocatorIiEEEENS1_IS3_EEEC1EmRKS3_, symObjAddr: 0x1320, symBinAddr: 0x100001DE0, symSize: 0x30 }
  - { offsetInCU: 0x105B9, offset: 0x105B9, size: 0x8, addend: 0x0, symName: __ZNSt3__16vectorINS0_IiNS_9allocatorIiEEEENS1_IS3_EEEixB8ue170006Em, symObjAddr: 0x1350, symBinAddr: 0x100001E10, symSize: 0x20 }
  - { offsetInCU: 0x105EF, offset: 0x105EF, size: 0x8, addend: 0x0, symName: __ZNSt3__16vectorIiNS_9allocatorIiEEEC1B8ue170006Ev, symObjAddr: 0x1370, symBinAddr: 0x100001E30, symSize: 0x20 }
  - { offsetInCU: 0x10618, offset: 0x10618, size: 0x8, addend: 0x0, symName: __ZNSt3__16vectorINS0_INS0_IiNS_9allocatorIiEEEENS1_IS3_EEEENS1_IS5_EEEC1EmRKS5_, symObjAddr: 0x1390, symBinAddr: 0x100001E50, symSize: 0x30 }
  - { offsetInCU: 0x10661, offset: 0x10661, size: 0x8, addend: 0x0, symName: __ZNSt3__16vectorINS0_INS0_INS0_IiNS_9allocatorIiEEEENS1_IS3_EEEENS1_IS5_EEEENS1_IS7_EEEC1EmRKS7_, symObjAddr: 0x13C0, symBinAddr: 0x100001E80, symSize: 0x30 }
  - { offsetInCU: 0x106AA, offset: 0x106AA, size: 0x8, addend: 0x0, symName: __ZNSt3__16vectorINS0_INS0_IiNS_9allocatorIiEEEENS1_IS3_EEEENS1_IS5_EEED1B8ue170006Ev, symObjAddr: 0x13F0, symBinAddr: 0x100001EB0, symSize: 0x20 }
  - { offsetInCU: 0x106D3, offset: 0x106D3, size: 0x8, addend: 0x0, symName: __ZNSt3__16vectorINS0_IiNS_9allocatorIiEEEENS1_IS3_EEED1B8ue170006Ev, symObjAddr: 0x1410, symBinAddr: 0x100001ED0, symSize: 0x20 }
  - { offsetInCU: 0x106FB, offset: 0x106FB, size: 0x8, addend: 0x0, symName: __ZNSt3__16vectorINS0_INS0_INS0_IiNS_9allocatorIiEEEENS1_IS3_EEEENS1_IS5_EEEENS1_IS7_EEEixB8ue170006Em, symObjAddr: 0x1430, symBinAddr: 0x100001EF0, symSize: 0x20 }
  - { offsetInCU: 0x10730, offset: 0x10730, size: 0x8, addend: 0x0, symName: __ZNSt3__16vectorINS0_INS0_IiNS_9allocatorIiEEEENS1_IS3_EEEENS1_IS5_EEEixB8ue170006Em, symObjAddr: 0x1450, symBinAddr: 0x100001F10, symSize: 0x20 }
  - { offsetInCU: 0x10765, offset: 0x10765, size: 0x8, addend: 0x0, symName: __ZNSt3__16vectorIiNS_9allocatorIiEEE9push_backB8ue170006ERKi, symObjAddr: 0x1470, symBinAddr: 0x100001F30, symSize: 0x60 }
  - { offsetInCU: 0x1079A, offset: 0x1079A, size: 0x8, addend: 0x0, symName: __ZNSt3__16vectorIiNS_9allocatorIiEEE9push_backB8ue170006EOi, symObjAddr: 0x14D0, symBinAddr: 0x100001F90, symSize: 0x60 }
  - { offsetInCU: 0x107D0, offset: 0x107D0, size: 0x8, addend: 0x0, symName: __ZNKSt3__16vectorIiNS_9allocatorIiEEE4sizeB8ue170006Ev, symObjAddr: 0x1530, symBinAddr: 0x100001FF0, symSize: 0x20 }
  - { offsetInCU: 0x107F4, offset: 0x107F4, size: 0x8, addend: 0x0, symName: __ZNSt3__16vectorIiNS_9allocatorIiEEE5beginB8ue170006Ev, symObjAddr: 0x15D0, symBinAddr: 0x100002090, symSize: 0x30 }
  - { offsetInCU: 0x1081A, offset: 0x1081A, size: 0x8, addend: 0x0, symName: __ZNSt3__16vectorIiNS_9allocatorIiEEE3endB8ue170006Ev, symObjAddr: 0x1600, symBinAddr: 0x1000020C0, symSize: 0x30 }
  - { offsetInCU: 0x10841, offset: 0x10841, size: 0x8, addend: 0x0, symName: __ZNSt3__113basic_ostreamIcNS_11char_traitsIcEEElsB8ue170006EPFRS3_S4_E, symObjAddr: 0x1630, symBinAddr: 0x1000020F0, symSize: 0x20 }
  - { offsetInCU: 0x10879, offset: 0x10879, size: 0x8, addend: 0x0, symName: __ZNSt3__112basic_stringIcNS_11char_traitsIcEENS_9allocatorIcEEEC1B8ue170006ILi0EEEPKc, symObjAddr: 0x16F0, symBinAddr: 0x1000021B0, symSize: 0x30 }
  - { offsetInCU: 0x108B7, offset: 0x108B7, size: 0x8, addend: 0x0, symName: __ZNSt3__16vectorINS0_INS0_INS0_IiNS_9allocatorIiEEEENS1_IS3_EEEENS1_IS5_EEEENS1_IS7_EEED1B8ue170006Ev, symObjAddr: 0x1720, symBinAddr: 0x1000021E0, symSize: 0x20 }
  - { offsetInCU: 0x108E0, offset: 0x108E0, size: 0x8, addend: 0x0, symName: __ZNSt3__16vectorIiNS_9allocatorIiEEEC2ERKS3_, symObjAddr: 0x1740, symBinAddr: 0x100002200, symSize: 0xA0 }
  - { offsetInCU: 0x10924, offset: 0x10924, size: 0x8, addend: 0x0, symName: __ZNSt3__116allocator_traitsINS_9allocatorIiEEE37select_on_container_copy_constructionB8ue170006IS2_vvEES2_RKS2_, symObjAddr: 0x17E0, symBinAddr: 0x1000022A0, symSize: 0x10 }
  - { offsetInCU: 0x10953, offset: 0x10953, size: 0x8, addend: 0x0, symName: __ZNKSt3__16vectorIiNS_9allocatorIiEEE7__allocB8ue170006Ev, symObjAddr: 0x17F0, symBinAddr: 0x1000022B0, symSize: 0x20 }
  - { offsetInCU: 0x10982, offset: 0x10982, size: 0x8, addend: 0x0, symName: __ZNSt3__117__compressed_pairIPiNS_9allocatorIiEEEC1B8ue170006IDnS3_EEOT_OT0_, symObjAddr: 0x1810, symBinAddr: 0x1000022D0, symSize: 0x30 }
  - { offsetInCU: 0x109D9, offset: 0x109D9, size: 0x8, addend: 0x0, symName: __ZNSt3__16vectorIiNS_9allocatorIiEEE16__init_with_sizeB8ue170006IPiS5_EEvT_T0_m, symObjAddr: 0x1840, symBinAddr: 0x100002300, symSize: 0xB0 }
  - { offsetInCU: 0x10A4C, offset: 0x10A4C, size: 0x8, addend: 0x0, symName: __ZNKSt3__117__compressed_pairIPiNS_9allocatorIiEEE6secondB8ue170006Ev, symObjAddr: 0x18F0, symBinAddr: 0x1000023B0, symSize: 0x20 }
  - { offsetInCU: 0x10A71, offset: 0x10A71, size: 0x8, addend: 0x0, symName: __ZNKSt3__122__compressed_pair_elemINS_9allocatorIiEELi1ELb1EE5__getB8ue170006Ev, symObjAddr: 0x1910, symBinAddr: 0x1000023D0, symSize: 0x10 }
  - { offsetInCU: 0x10A96, offset: 0x10A96, size: 0x8, addend: 0x0, symName: __ZNSt3__117__compressed_pairIPiNS_9allocatorIiEEEC2B8ue170006IDnS3_EEOT_OT0_, symObjAddr: 0x1920, symBinAddr: 0x1000023E0, symSize: 0x40 }
  - { offsetInCU: 0x10AED, offset: 0x10AED, size: 0x8, addend: 0x0, symName: __ZNSt3__122__compressed_pair_elemIPiLi0ELb0EEC2B8ue170006IDnvEEOT_, symObjAddr: 0x1960, symBinAddr: 0x100002420, symSize: 0x20 }
  - { offsetInCU: 0x10B2E, offset: 0x10B2E, size: 0x8, addend: 0x0, symName: __ZNSt3__122__compressed_pair_elemINS_9allocatorIiEELi1ELb1EEC2B8ue170006IS2_vEEOT_, symObjAddr: 0x1980, symBinAddr: 0x100002440, symSize: 0x10 }
  - { offsetInCU: 0x10B6F, offset: 0x10B6F, size: 0x8, addend: 0x0, symName: __ZNSt3__16vectorIiNS_9allocatorIiEEE16__destroy_vectorC1B8ue170006ERS3_, symObjAddr: 0x19D0, symBinAddr: 0x100002490, symSize: 0x30 }
  - { offsetInCU: 0x10BA7, offset: 0x10BA7, size: 0x8, addend: 0x0, symName: __ZNSt3__16vectorIiNS_9allocatorIiEEE11__vallocateB8ue170006Em, symObjAddr: 0x1A00, symBinAddr: 0x1000024C0, symSize: 0xA0 }
  - { offsetInCU: 0x10BE9, offset: 0x10BE9, size: 0x8, addend: 0x0, symName: __ZNSt3__16vectorIiNS_9allocatorIiEEE18__construct_at_endIPiS5_EEvT_T0_m, symObjAddr: 0x1AA0, symBinAddr: 0x100002560, symSize: 0x90 }
  - { offsetInCU: 0x10C5E, offset: 0x10C5E, size: 0x8, addend: 0x0, symName: __ZNSt3__128__exception_guard_exceptionsINS_6vectorIiNS_9allocatorIiEEE16__destroy_vectorEE10__completeB8ue170006Ev, symObjAddr: 0x1B30, symBinAddr: 0x1000025F0, symSize: 0x20 }
  - { offsetInCU: 0x10C83, offset: 0x10C83, size: 0x8, addend: 0x0, symName: __ZNSt3__128__exception_guard_exceptionsINS_6vectorIiNS_9allocatorIiEEE16__destroy_vectorEED1B8ue170006Ev, symObjAddr: 0x1B50, symBinAddr: 0x100002610, symSize: 0x20 }
  - { offsetInCU: 0x10CAC, offset: 0x10CAC, size: 0x8, addend: 0x0, symName: __ZNSt3__128__exception_guard_exceptionsINS_6vectorIiNS_9allocatorIiEEE16__destroy_vectorEEC1B8ue170006ES5_, symObjAddr: 0x1B70, symBinAddr: 0x100002630, symSize: 0x30 }
  - { offsetInCU: 0x10CE3, offset: 0x10CE3, size: 0x8, addend: 0x0, symName: __ZNSt3__128__exception_guard_exceptionsINS_6vectorIiNS_9allocatorIiEEE16__destroy_vectorEEC2B8ue170006ES5_, symObjAddr: 0x1BA0, symBinAddr: 0x100002660, symSize: 0x20 }
  - { offsetInCU: 0x10D1A, offset: 0x10D1A, size: 0x8, addend: 0x0, symName: __ZNSt3__16vectorIiNS_9allocatorIiEEE16__destroy_vectorC2B8ue170006ERS3_, symObjAddr: 0x1BC0, symBinAddr: 0x100002680, symSize: 0x20 }
  - { offsetInCU: 0x10D51, offset: 0x10D51, size: 0x8, addend: 0x0, symName: __ZNKSt3__16vectorIiNS_9allocatorIiEEE8max_sizeEv, symObjAddr: 0x1BE0, symBinAddr: 0x1000026A0, symSize: 0x60 }
  - { offsetInCU: 0x10D78, offset: 0x10D78, size: 0x8, addend: 0x0, symName: __ZNKSt3__16vectorIiNS_9allocatorIiEEE20__throw_length_errorB8ue170006Ev, symObjAddr: 0x1C40, symBinAddr: 0x100002700, symSize: 0x20 }
  - { offsetInCU: 0x10D9D, offset: 0x10D9D, size: 0x8, addend: 0x0, symName: __ZNSt3__16vectorIiNS_9allocatorIiEEE7__allocB8ue170006Ev, symObjAddr: 0x1CA0, symBinAddr: 0x100002760, symSize: 0x20 }
  - { offsetInCU: 0x10DC2, offset: 0x10DC2, size: 0x8, addend: 0x0, symName: __ZNSt3__16vectorIiNS_9allocatorIiEEE9__end_capB8ue170006Ev, symObjAddr: 0x1CC0, symBinAddr: 0x100002780, symSize: 0x20 }
  - { offsetInCU: 0x10DE7, offset: 0x10DE7, size: 0x8, addend: 0x0, symName: __ZNKSt3__16vectorIiNS_9allocatorIiEEE14__annotate_newB8ue170006Em, symObjAddr: 0x1CE0, symBinAddr: 0x1000027A0, symSize: 0xB0 }
  - { offsetInCU: 0x10E1B, offset: 0x10E1B, size: 0x8, addend: 0x0, symName: __ZNSt3__116allocator_traitsINS_9allocatorIiEEE8max_sizeB8ue170006IS2_vEEmRKS2_, symObjAddr: 0x1DC0, symBinAddr: 0x100002880, symSize: 0x20 }
  - { offsetInCU: 0x10E49, offset: 0x10E49, size: 0x8, addend: 0x0, symName: __ZNSt3__114numeric_limitsIlE3maxB8ue170006Ev, symObjAddr: 0x1DE0, symBinAddr: 0x1000028A0, symSize: 0x10 }
  - { offsetInCU: 0x10E71, offset: 0x10E71, size: 0x8, addend: 0x0, symName: __ZNKSt3__16__lessIvvEclB8ue170006ImmEEbRKT_RKT0_, symObjAddr: 0x1E50, symBinAddr: 0x100002910, symSize: 0x30 }
  - { offsetInCU: 0x10EC4, offset: 0x10EC4, size: 0x8, addend: 0x0, symName: __ZNKSt3__19allocatorIiE8max_sizeB8ue170006Ev, symObjAddr: 0x1E80, symBinAddr: 0x100002940, symSize: 0x20 }
  - { offsetInCU: 0x10EE9, offset: 0x10EE9, size: 0x8, addend: 0x0, symName: __ZNSt3__123__libcpp_numeric_limitsIlLb1EE3maxB8ue170006Ev, symObjAddr: 0x1EA0, symBinAddr: 0x100002960, symSize: 0x10 }
  - { offsetInCU: 0x10EFD, offset: 0x10EFD, size: 0x8, addend: 0x0, symName: __ZNSt12length_errorC1B8ue170006EPKc, symObjAddr: 0x1F20, symBinAddr: 0x1000029E0, symSize: 0x30 }
  - { offsetInCU: 0x10F34, offset: 0x10F34, size: 0x8, addend: 0x0, symName: __ZNSt12length_errorC2B8ue170006EPKc, symObjAddr: 0x1F50, symBinAddr: 0x100002A10, symSize: 0x40 }
  - { offsetInCU: 0x10F6B, offset: 0x10F6B, size: 0x8, addend: 0x0, symName: __ZNSt3__19allocatorIiE8allocateB8ue170006Em, symObjAddr: 0x1F90, symBinAddr: 0x100002A50, symSize: 0x50 }
  - { offsetInCU: 0x10F9E, offset: 0x10F9E, size: 0x8, addend: 0x0, symName: __ZNSt3__117__compressed_pairIPiNS_9allocatorIiEEE6secondB8ue170006Ev, symObjAddr: 0x20F0, symBinAddr: 0x100002BB0, symSize: 0x20 }
  - { offsetInCU: 0x10FC3, offset: 0x10FC3, size: 0x8, addend: 0x0, symName: __ZNSt3__122__compressed_pair_elemINS_9allocatorIiEELi1ELb1EE5__getB8ue170006Ev, symObjAddr: 0x2110, symBinAddr: 0x100002BD0, symSize: 0x10 }
  - { offsetInCU: 0x10FE8, offset: 0x10FE8, size: 0x8, addend: 0x0, symName: __ZNSt3__117__compressed_pairIPiNS_9allocatorIiEEE5firstB8ue170006Ev, symObjAddr: 0x2120, symBinAddr: 0x100002BE0, symSize: 0x20 }
  - { offsetInCU: 0x1100D, offset: 0x1100D, size: 0x8, addend: 0x0, symName: __ZNSt3__122__compressed_pair_elemIPiLi0ELb0EE5__getB8ue170006Ev, symObjAddr: 0x2140, symBinAddr: 0x100002C00, symSize: 0x10 }
  - { offsetInCU: 0x11032, offset: 0x11032, size: 0x8, addend: 0x0, symName: __ZNKSt3__16vectorIiNS_9allocatorIiEEE31__annotate_contiguous_containerB8ue170006EPKvS5_S5_S5_, symObjAddr: 0x2150, symBinAddr: 0x100002C10, symSize: 0x20 }
  - { offsetInCU: 0x11083, offset: 0x11083, size: 0x8, addend: 0x0, symName: __ZNKSt3__16vectorIiNS_9allocatorIiEEE4dataB8ue170006Ev, symObjAddr: 0x2170, symBinAddr: 0x100002C30, symSize: 0x20 }
  - { offsetInCU: 0x110A8, offset: 0x110A8, size: 0x8, addend: 0x0, symName: __ZNKSt3__16vectorIiNS_9allocatorIiEEE8capacityB8ue170006Ev, symObjAddr: 0x2190, symBinAddr: 0x100002C50, symSize: 0x30 }
  - { offsetInCU: 0x110CD, offset: 0x110CD, size: 0x8, addend: 0x0, symName: __ZNKSt3__16vectorIiNS_9allocatorIiEEE9__end_capB8ue170006Ev, symObjAddr: 0x21D0, symBinAddr: 0x100002C90, symSize: 0x20 }
  - { offsetInCU: 0x110F2, offset: 0x110F2, size: 0x8, addend: 0x0, symName: __ZNKSt3__117__compressed_pairIPiNS_9allocatorIiEEE5firstB8ue170006Ev, symObjAddr: 0x21F0, symBinAddr: 0x100002CB0, symSize: 0x20 }
  - { offsetInCU: 0x11117, offset: 0x11117, size: 0x8, addend: 0x0, symName: __ZNKSt3__122__compressed_pair_elemIPiLi0ELb0EE5__getB8ue170006Ev, symObjAddr: 0x2210, symBinAddr: 0x100002CD0, symSize: 0x10 }
  - { offsetInCU: 0x11155, offset: 0x11155, size: 0x8, addend: 0x0, symName: __ZNSt3__16vectorIiNS_9allocatorIiEEE21_ConstructTransactionC1B8ue170006ERS3_m, symObjAddr: 0x2220, symBinAddr: 0x100002CE0, symSize: 0x30 }
  - { offsetInCU: 0x1119C, offset: 0x1119C, size: 0x8, addend: 0x0, symName: __ZNSt3__16vectorIiNS_9allocatorIiEEE21_ConstructTransactionD1B8ue170006Ev, symObjAddr: 0x22D0, symBinAddr: 0x100002D90, symSize: 0x20 }
  - { offsetInCU: 0x111C5, offset: 0x111C5, size: 0x8, addend: 0x0, symName: __ZNSt3__16vectorIiNS_9allocatorIiEEE21_ConstructTransactionC2B8ue170006ERS3_m, symObjAddr: 0x22F0, symBinAddr: 0x100002DB0, symSize: 0x40 }
  - { offsetInCU: 0x1122A, offset: 0x1122A, size: 0x8, addend: 0x0, symName: __ZNSt3__14pairIPiS1_EC1B8ue170006IS1_S1_LPv0EEEOT_OT0_, symObjAddr: 0x2440, symBinAddr: 0x100002F00, symSize: 0x30 }
  - { offsetInCU: 0x11287, offset: 0x11287, size: 0x8, addend: 0x0, symName: __ZNSt3__14pairIPiS1_EC2B8ue170006IS1_S1_LPv0EEEOT_OT0_, symObjAddr: 0x2470, symBinAddr: 0x100002F30, symSize: 0x30 }
  - { offsetInCU: 0x112EE, offset: 0x112EE, size: 0x8, addend: 0x0, symName: __ZNKSt3__114__copy_trivialclB8ue170006IiiLi0EEENS_4pairIPT_PT0_EES4_S4_S6_, symObjAddr: 0x2610, symBinAddr: 0x1000030D0, symSize: 0x40 }
  - { offsetInCU: 0x11355, offset: 0x11355, size: 0x8, addend: 0x0, symName: __ZNSt3__14pairIPiS1_EC1B8ue170006IRS1_S1_LPv0EEEOT_OT0_, symObjAddr: 0x2770, symBinAddr: 0x100003230, symSize: 0x30 }
  - { offsetInCU: 0x113B2, offset: 0x113B2, size: 0x8, addend: 0x0, symName: __ZNSt3__14pairIPiS1_EC2B8ue170006IRS1_S1_LPv0EEEOT_OT0_, symObjAddr: 0x27A0, symBinAddr: 0x100003260, symSize: 0x30 }
  - { offsetInCU: 0x1140F, offset: 0x1140F, size: 0x8, addend: 0x0, symName: __ZNSt3__118__unwrap_iter_implIPiLb1EE8__unwrapB8ue170006ES1_, symObjAddr: 0x27D0, symBinAddr: 0x100003290, symSize: 0x20 }
  - { offsetInCU: 0x11432, offset: 0x11432, size: 0x8, addend: 0x0, symName: __ZNSt3__118__unwrap_iter_implIPiLb1EE8__rewrapB8ue170006ES1_S1_, symObjAddr: 0x27F0, symBinAddr: 0x1000032B0, symSize: 0x50 }
  - { offsetInCU: 0x11463, offset: 0x11463, size: 0x8, addend: 0x0, symName: __ZNSt3__16vectorIiNS_9allocatorIiEEE21_ConstructTransactionD2B8ue170006Ev, symObjAddr: 0x2840, symBinAddr: 0x100003300, symSize: 0x20 }
  - { offsetInCU: 0x1148C, offset: 0x1148C, size: 0x8, addend: 0x0, symName: __ZNSt3__128__exception_guard_exceptionsINS_6vectorIiNS_9allocatorIiEEE16__destroy_vectorEED2B8ue170006Ev, symObjAddr: 0x2860, symBinAddr: 0x100003320, symSize: 0x40 }
  - { offsetInCU: 0x114B5, offset: 0x114B5, size: 0x8, addend: 0x0, symName: __ZNSt3__16vectorIiNS_9allocatorIiEEE16__destroy_vectorclB8ue170006Ev, symObjAddr: 0x28A0, symBinAddr: 0x100003360, symSize: 0x80 }
  - { offsetInCU: 0x114DA, offset: 0x114DA, size: 0x8, addend: 0x0, symName: __ZNSt3__16vectorIiNS_9allocatorIiEEE7__clearB8ue170006Ev, symObjAddr: 0x2920, symBinAddr: 0x1000033E0, symSize: 0x20 }
  - { offsetInCU: 0x114FF, offset: 0x114FF, size: 0x8, addend: 0x0, symName: __ZNKSt3__16vectorIiNS_9allocatorIiEEE17__annotate_deleteB8ue170006Ev, symObjAddr: 0x2940, symBinAddr: 0x100003400, symSize: 0xB0 }
  - { offsetInCU: 0x11524, offset: 0x11524, size: 0x8, addend: 0x0, symName: __ZNSt3__116allocator_traitsINS_9allocatorIiEEE10deallocateB8ue170006ERS2_Pim, symObjAddr: 0x29F0, symBinAddr: 0x1000034B0, symSize: 0x30 }
  - { offsetInCU: 0x11566, offset: 0x11566, size: 0x8, addend: 0x0, symName: __ZNSt3__16vectorIiNS_9allocatorIiEEE22__base_destruct_at_endB8ue170006EPi, symObjAddr: 0x2A20, symBinAddr: 0x1000034E0, symSize: 0x80 }
  - { offsetInCU: 0x115A9, offset: 0x115A9, size: 0x8, addend: 0x0, symName: __ZNSt3__116allocator_traitsINS_9allocatorIiEEE7destroyB8ue170006IivEEvRS2_PT_, symObjAddr: 0x2AA0, symBinAddr: 0x100003560, symSize: 0x30 }
  - { offsetInCU: 0x115E6, offset: 0x115E6, size: 0x8, addend: 0x0, symName: __ZNSt3__19allocatorIiE7destroyB8ue170006EPi, symObjAddr: 0x2AD0, symBinAddr: 0x100003590, symSize: 0x10 }
  - { offsetInCU: 0x11619, offset: 0x11619, size: 0x8, addend: 0x0, symName: __ZNSt3__19allocatorIiE10deallocateB8ue170006EPim, symObjAddr: 0x2AE0, symBinAddr: 0x1000035A0, symSize: 0x40 }
  - { offsetInCU: 0x1165A, offset: 0x1165A, size: 0x8, addend: 0x0, symName: __ZNSt3__16vectorIiNS_9allocatorIiEEED2B8ue170006Ev, symObjAddr: 0x2C20, symBinAddr: 0x1000036E0, symSize: 0x40 }
  - { offsetInCU: 0x11683, offset: 0x11683, size: 0x8, addend: 0x0, symName: __ZNSt3__112basic_stringIcNS_11char_traitsIcEENS_9allocatorIcEEEC1B8ue170006EOS5_, symObjAddr: 0x2C60, symBinAddr: 0x100003720, symSize: 0x30 }
  - { offsetInCU: 0x116BB, offset: 0x116BB, size: 0x8, addend: 0x0, symName: __ZNSt3__112basic_stringIcNS_11char_traitsIcEENS_9allocatorIcEEEC2B8ue170006EOS5_, symObjAddr: 0x2C90, symBinAddr: 0x100003750, symSize: 0x50 }
  - { offsetInCU: 0x116F3, offset: 0x116F3, size: 0x8, addend: 0x0, symName: __ZNSt3__112basic_stringIcNS_11char_traitsIcEENS_9allocatorIcEEE14__default_initB8ue170006Ev, symObjAddr: 0x2CE0, symBinAddr: 0x1000037A0, symSize: 0x50 }
  - { offsetInCU: 0x11718, offset: 0x11718, size: 0x8, addend: 0x0, symName: __ZNSt3__117__compressed_pairINS_12basic_stringIcNS_11char_traitsIcEENS_9allocatorIcEEE5__repES5_E5firstB8ue170006Ev, symObjAddr: 0x2D30, symBinAddr: 0x1000037F0, symSize: 0x20 }
  - { offsetInCU: 0x1173D, offset: 0x1173D, size: 0x8, addend: 0x0, symName: __ZNSt3__122__compressed_pair_elemINS_12basic_stringIcNS_11char_traitsIcEENS_9allocatorIcEEE5__repELi0ELb0EE5__getB8ue170006Ev, symObjAddr: 0x2D50, symBinAddr: 0x100003810, symSize: 0x10 }
  - { offsetInCU: 0x11762, offset: 0x11762, size: 0x8, addend: 0x0, symName: __ZNSt3__112basic_stringIcNS_11char_traitsIcEENS_9allocatorIcEEE6appendB8ue170006ERKS5_, symObjAddr: 0x2D60, symBinAddr: 0x100003820, symSize: 0x50 }
  - { offsetInCU: 0x11796, offset: 0x11796, size: 0x8, addend: 0x0, symName: __ZNKSt3__112basic_stringIcNS_11char_traitsIcEENS_9allocatorIcEEE4dataB8ue170006Ev, symObjAddr: 0x2DB0, symBinAddr: 0x100003870, symSize: 0x30 }
  - { offsetInCU: 0x117BB, offset: 0x117BB, size: 0x8, addend: 0x0, symName: __ZNKSt3__112basic_stringIcNS_11char_traitsIcEENS_9allocatorIcEEE4sizeB8ue170006Ev, symObjAddr: 0x2DE0, symBinAddr: 0x1000038A0, symSize: 0x50 }
  - { offsetInCU: 0x117E0, offset: 0x117E0, size: 0x8, addend: 0x0, symName: __ZNKSt3__112basic_stringIcNS_11char_traitsIcEENS_9allocatorIcEEE13__get_pointerB8ue170006Ev, symObjAddr: 0x2E40, symBinAddr: 0x100003900, symSize: 0x50 }
  - { offsetInCU: 0x11805, offset: 0x11805, size: 0x8, addend: 0x0, symName: __ZNKSt3__112basic_stringIcNS_11char_traitsIcEENS_9allocatorIcEEE9__is_longB8ue170006Ev, symObjAddr: 0x2E90, symBinAddr: 0x100003950, symSize: 0x30 }
  - { offsetInCU: 0x1182A, offset: 0x1182A, size: 0x8, addend: 0x0, symName: __ZNKSt3__112basic_stringIcNS_11char_traitsIcEENS_9allocatorIcEEE18__get_long_pointerB8ue170006Ev, symObjAddr: 0x2EC0, symBinAddr: 0x100003980, symSize: 0x20 }
  - { offsetInCU: 0x1184F, offset: 0x1184F, size: 0x8, addend: 0x0, symName: __ZNKSt3__112basic_stringIcNS_11char_traitsIcEENS_9allocatorIcEEE19__get_short_pointerB8ue170006Ev, symObjAddr: 0x2EE0, symBinAddr: 0x1000039A0, symSize: 0x30 }
  - { offsetInCU: 0x11874, offset: 0x11874, size: 0x8, addend: 0x0, symName: __ZNKSt3__117__compressed_pairINS_12basic_stringIcNS_11char_traitsIcEENS_9allocatorIcEEE5__repES5_E5firstB8ue170006Ev, symObjAddr: 0x2F10, symBinAddr: 0x1000039D0, symSize: 0x20 }
  - { offsetInCU: 0x11899, offset: 0x11899, size: 0x8, addend: 0x0, symName: __ZNKSt3__122__compressed_pair_elemINS_12basic_stringIcNS_11char_traitsIcEENS_9allocatorIcEEE5__repELi0ELb0EE5__getB8ue170006Ev, symObjAddr: 0x2F30, symBinAddr: 0x1000039F0, symSize: 0x10 }
  - { offsetInCU: 0x118BE, offset: 0x118BE, size: 0x8, addend: 0x0, symName: __ZNSt3__114pointer_traitsIPKcE10pointer_toB8ue170006ERS1_, symObjAddr: 0x2F40, symBinAddr: 0x100003A00, symSize: 0x10 }
  - { offsetInCU: 0x118E1, offset: 0x118E1, size: 0x8, addend: 0x0, symName: __ZNKSt3__112basic_stringIcNS_11char_traitsIcEENS_9allocatorIcEEE15__get_long_sizeB8ue170006Ev, symObjAddr: 0x2F50, symBinAddr: 0x100003A10, symSize: 0x20 }
  - { offsetInCU: 0x11906, offset: 0x11906, size: 0x8, addend: 0x0, symName: __ZNKSt3__112basic_stringIcNS_11char_traitsIcEENS_9allocatorIcEEE16__get_short_sizeB8ue170006Ev, symObjAddr: 0x2F70, symBinAddr: 0x100003A30, symSize: 0x30 }
  - { offsetInCU: 0x1192B, offset: 0x1192B, size: 0x8, addend: 0x0, symName: __ZNSt3__16vectorIiNS_9allocatorIiEEEC2Em, symObjAddr: 0x2FA0, symBinAddr: 0x100003A60, symSize: 0xD0 }
  - { offsetInCU: 0x1197F, offset: 0x1197F, size: 0x8, addend: 0x0, symName: __ZNSt3__117__compressed_pairIPiNS_9allocatorIiEEEC1B8ue170006IDnNS_18__default_init_tagEEEOT_OT0_, symObjAddr: 0x3070, symBinAddr: 0x100003B30, symSize: 0x30 }
  - { offsetInCU: 0x119D5, offset: 0x119D5, size: 0x8, addend: 0x0, symName: __ZNSt3__16vectorIiNS_9allocatorIiEEE18__construct_at_endEm, symObjAddr: 0x30A0, symBinAddr: 0x100003B60, symSize: 0xC0 }
  - { offsetInCU: 0x11A46, offset: 0x11A46, size: 0x8, addend: 0x0, symName: __ZNSt3__117__compressed_pairIPiNS_9allocatorIiEEEC2B8ue170006IDnNS_18__default_init_tagEEEOT_OT0_, symObjAddr: 0x3160, symBinAddr: 0x100003C20, symSize: 0x40 }
  - { offsetInCU: 0x11A9D, offset: 0x11A9D, size: 0x8, addend: 0x0, symName: __ZNSt3__122__compressed_pair_elemINS_9allocatorIiEELi1ELb1EEC2B8ue170006ENS_18__default_init_tagE, symObjAddr: 0x31A0, symBinAddr: 0x100003C60, symSize: 0x20 }
  - { offsetInCU: 0x11AD1, offset: 0x11AD1, size: 0x8, addend: 0x0, symName: __ZNSt3__19allocatorIiEC2B8ue170006Ev, symObjAddr: 0x31C0, symBinAddr: 0x100003C80, symSize: 0x20 }
  - { offsetInCU: 0x11AFA, offset: 0x11AFA, size: 0x8, addend: 0x0, symName: __ZNSt3__116__non_trivial_ifILb1ENS_9allocatorIiEEEC2B8ue170006Ev, symObjAddr: 0x31E0, symBinAddr: 0x100003CA0, symSize: 0x10 }
  - { offsetInCU: 0x11B23, offset: 0x11B23, size: 0x8, addend: 0x0, symName: __ZNSt3__116allocator_traitsINS_9allocatorIiEEE9constructB8ue170006IiJEvEEvRS2_PT_DpOT0_, symObjAddr: 0x31F0, symBinAddr: 0x100003CB0, symSize: 0x30 }
  - { offsetInCU: 0x11B65, offset: 0x11B65, size: 0x8, addend: 0x0, symName: __ZNSt3__19allocatorIiE9constructB8ue170006IiJEEEvPT_DpOT0_, symObjAddr: 0x3220, symBinAddr: 0x100003CE0, symSize: 0x20 }
  - { offsetInCU: 0x11BA6, offset: 0x11BA6, size: 0x8, addend: 0x0, symName: __ZNSt3__16vectorINS0_IiNS_9allocatorIiEEEENS1_IS3_EEEC2EmRKS3_, symObjAddr: 0x3240, symBinAddr: 0x100003D00, symSize: 0xE0 }
  - { offsetInCU: 0x11C04, offset: 0x11C04, size: 0x8, addend: 0x0, symName: __ZNSt3__117__compressed_pairIPNS_6vectorIiNS_9allocatorIiEEEENS2_IS4_EEEC1B8ue170006IDnNS_18__default_init_tagEEEOT_OT0_, symObjAddr: 0x3320, symBinAddr: 0x100003DE0, symSize: 0x30 }
  - { offsetInCU: 0x11C5B, offset: 0x11C5B, size: 0x8, addend: 0x0, symName: __ZNSt3__16vectorINS0_IiNS_9allocatorIiEEEENS1_IS3_EEE16__destroy_vectorC1B8ue170006ERS5_, symObjAddr: 0x3390, symBinAddr: 0x100003E50, symSize: 0x30 }
  - { offsetInCU: 0x11C93, offset: 0x11C93, size: 0x8, addend: 0x0, symName: __ZNSt3__16vectorINS0_IiNS_9allocatorIiEEEENS1_IS3_EEE11__vallocateB8ue170006Em, symObjAddr: 0x33C0, symBinAddr: 0x100003E80, symSize: 0xA0 }
  - { offsetInCU: 0x11CD5, offset: 0x11CD5, size: 0x8, addend: 0x0, symName: __ZNSt3__16vectorINS0_IiNS_9allocatorIiEEEENS1_IS3_EEE18__construct_at_endEmRKS3_, symObjAddr: 0x3460, symBinAddr: 0x100003F20, symSize: 0xC0 }
  - { offsetInCU: 0x11D55, offset: 0x11D55, size: 0x8, addend: 0x0, symName: __ZNSt3__128__exception_guard_exceptionsINS_6vectorINS1_IiNS_9allocatorIiEEEENS2_IS4_EEE16__destroy_vectorEE10__completeB8ue170006Ev, symObjAddr: 0x3520, symBinAddr: 0x100003FE0, symSize: 0x20 }
  - { offsetInCU: 0x11D7A, offset: 0x11D7A, size: 0x8, addend: 0x0, symName: __ZNSt3__128__exception_guard_exceptionsINS_6vectorINS1_IiNS_9allocatorIiEEEENS2_IS4_EEE16__destroy_vectorEED1B8ue170006Ev, symObjAddr: 0x3540, symBinAddr: 0x100004000, symSize: 0x20 }
  - { offsetInCU: 0x11DA3, offset: 0x11DA3, size: 0x8, addend: 0x0, symName: __ZNSt3__117__compressed_pairIPNS_6vectorIiNS_9allocatorIiEEEENS2_IS4_EEEC2B8ue170006IDnNS_18__default_init_tagEEEOT_OT0_, symObjAddr: 0x3560, symBinAddr: 0x100004020, symSize: 0x40 }
  - { offsetInCU: 0x11DFA, offset: 0x11DFA, size: 0x8, addend: 0x0, symName: __ZNSt3__122__compressed_pair_elemIPNS_6vectorIiNS_9allocatorIiEEEELi0ELb0EEC2B8ue170006IDnvEEOT_, symObjAddr: 0x35A0, symBinAddr: 0x100004060, symSize: 0x20 }
  - { offsetInCU: 0x11E3B, offset: 0x11E3B, size: 0x8, addend: 0x0, symName: __ZNSt3__122__compressed_pair_elemINS_9allocatorINS_6vectorIiNS1_IiEEEEEELi1ELb1EEC2B8ue170006ENS_18__default_init_tagE, symObjAddr: 0x35C0, symBinAddr: 0x100004080, symSize: 0x20 }
  - { offsetInCU: 0x11E6F, offset: 0x11E6F, size: 0x8, addend: 0x0, symName: __ZNSt3__19allocatorINS_6vectorIiNS0_IiEEEEEC2B8ue170006Ev, symObjAddr: 0x35E0, symBinAddr: 0x1000040A0, symSize: 0x20 }
  - { offsetInCU: 0x11E98, offset: 0x11E98, size: 0x8, addend: 0x0, symName: __ZNSt3__116__non_trivial_ifILb1ENS_9allocatorINS_6vectorIiNS1_IiEEEEEEEC2B8ue170006Ev, symObjAddr: 0x3600, symBinAddr: 0x1000040C0, symSize: 0x10 }
  - { offsetInCU: 0x11EC1, offset: 0x11EC1, size: 0x8, addend: 0x0, symName: __ZNSt3__128__exception_guard_exceptionsINS_6vectorINS1_IiNS_9allocatorIiEEEENS2_IS4_EEE16__destroy_vectorEEC1B8ue170006ES7_, symObjAddr: 0x3610, symBinAddr: 0x1000040D0, symSize: 0x30 }
  - { offsetInCU: 0x11EF8, offset: 0x11EF8, size: 0x8, addend: 0x0, symName: __ZNSt3__128__exception_guard_exceptionsINS_6vectorINS1_IiNS_9allocatorIiEEEENS2_IS4_EEE16__destroy_vectorEEC2B8ue170006ES7_, symObjAddr: 0x3640, symBinAddr: 0x100004100, symSize: 0x20 }
  - { offsetInCU: 0x11F2F, offset: 0x11F2F, size: 0x8, addend: 0x0, symName: __ZNSt3__16vectorINS0_IiNS_9allocatorIiEEEENS1_IS3_EEE16__destroy_vectorC2B8ue170006ERS5_, symObjAddr: 0x3660, symBinAddr: 0x100004120, symSize: 0x20 }
  - { offsetInCU: 0x11F66, offset: 0x11F66, size: 0x8, addend: 0x0, symName: __ZNKSt3__16vectorINS0_IiNS_9allocatorIiEEEENS1_IS3_EEE8max_sizeEv, symObjAddr: 0x3680, symBinAddr: 0x100004140, symSize: 0x60 }
  - { offsetInCU: 0x11F8D, offset: 0x11F8D, size: 0x8, addend: 0x0, symName: __ZNKSt3__16vectorINS0_IiNS_9allocatorIiEEEENS1_IS3_EEE20__throw_length_errorB8ue170006Ev, symObjAddr: 0x36E0, symBinAddr: 0x1000041A0, symSize: 0x20 }
  - { offsetInCU: 0x11FB2, offset: 0x11FB2, size: 0x8, addend: 0x0, symName: __ZNSt3__16vectorINS0_IiNS_9allocatorIiEEEENS1_IS3_EEE7__allocB8ue170006Ev, symObjAddr: 0x3740, symBinAddr: 0x100004200, symSize: 0x20 }
  - { offsetInCU: 0x11FD7, offset: 0x11FD7, size: 0x8, addend: 0x0, symName: __ZNSt3__16vectorINS0_IiNS_9allocatorIiEEEENS1_IS3_EEE9__end_capB8ue170006Ev, symObjAddr: 0x3760, symBinAddr: 0x100004220, symSize: 0x20 }
  - { offsetInCU: 0x11FFC, offset: 0x11FFC, size: 0x8, addend: 0x0, symName: __ZNKSt3__16vectorINS0_IiNS_9allocatorIiEEEENS1_IS3_EEE14__annotate_newB8ue170006Em, symObjAddr: 0x3780, symBinAddr: 0x100004240, symSize: 0xA0 }
  - { offsetInCU: 0x1203A, offset: 0x1203A, size: 0x8, addend: 0x0, symName: __ZNSt3__116allocator_traitsINS_9allocatorINS_6vectorIiNS1_IiEEEEEEE8max_sizeB8ue170006IS5_vEEmRKS5_, symObjAddr: 0x3820, symBinAddr: 0x1000042E0, symSize: 0x20 }
  - { offsetInCU: 0x12068, offset: 0x12068, size: 0x8, addend: 0x0, symName: __ZNKSt3__16vectorINS0_IiNS_9allocatorIiEEEENS1_IS3_EEE7__allocB8ue170006Ev, symObjAddr: 0x3840, symBinAddr: 0x100004300, symSize: 0x20 }
  - { offsetInCU: 0x1208D, offset: 0x1208D, size: 0x8, addend: 0x0, symName: __ZNKSt3__19allocatorINS_6vectorIiNS0_IiEEEEE8max_sizeB8ue170006Ev, symObjAddr: 0x3860, symBinAddr: 0x100004320, symSize: 0x20 }
  - { offsetInCU: 0x120B2, offset: 0x120B2, size: 0x8, addend: 0x0, symName: __ZNKSt3__117__compressed_pairIPNS_6vectorIiNS_9allocatorIiEEEENS2_IS4_EEE6secondB8ue170006Ev, symObjAddr: 0x3880, symBinAddr: 0x100004340, symSize: 0x20 }
  - { offsetInCU: 0x120D7, offset: 0x120D7, size: 0x8, addend: 0x0, symName: __ZNKSt3__122__compressed_pair_elemINS_9allocatorINS_6vectorIiNS1_IiEEEEEELi1ELb1EE5__getB8ue170006Ev, symObjAddr: 0x38A0, symBinAddr: 0x100004360, symSize: 0x10 }
  - { offsetInCU: 0x120FC, offset: 0x120FC, size: 0x8, addend: 0x0, symName: __ZNSt3__19allocatorINS_6vectorIiNS0_IiEEEEE8allocateB8ue170006Em, symObjAddr: 0x38B0, symBinAddr: 0x100004370, symSize: 0x50 }
  - { offsetInCU: 0x1212F, offset: 0x1212F, size: 0x8, addend: 0x0, symName: __ZNSt3__117__compressed_pairIPNS_6vectorIiNS_9allocatorIiEEEENS2_IS4_EEE6secondB8ue170006Ev, symObjAddr: 0x3900, symBinAddr: 0x1000043C0, symSize: 0x20 }
  - { offsetInCU: 0x12154, offset: 0x12154, size: 0x8, addend: 0x0, symName: __ZNSt3__122__compressed_pair_elemINS_9allocatorINS_6vectorIiNS1_IiEEEEEELi1ELb1EE5__getB8ue170006Ev, symObjAddr: 0x3920, symBinAddr: 0x1000043E0, symSize: 0x10 }
  - { offsetInCU: 0x12179, offset: 0x12179, size: 0x8, addend: 0x0, symName: __ZNSt3__117__compressed_pairIPNS_6vectorIiNS_9allocatorIiEEEENS2_IS4_EEE5firstB8ue170006Ev, symObjAddr: 0x3930, symBinAddr: 0x1000043F0, symSize: 0x20 }
  - { offsetInCU: 0x1219E, offset: 0x1219E, size: 0x8, addend: 0x0, symName: __ZNSt3__122__compressed_pair_elemIPNS_6vectorIiNS_9allocatorIiEEEELi0ELb0EE5__getB8ue170006Ev, symObjAddr: 0x3950, symBinAddr: 0x100004410, symSize: 0x10 }
  - { offsetInCU: 0x121C3, offset: 0x121C3, size: 0x8, addend: 0x0, symName: __ZNKSt3__16vectorINS0_IiNS_9allocatorIiEEEENS1_IS3_EEE31__annotate_contiguous_containerB8ue170006EPKvS7_S7_S7_, symObjAddr: 0x3960, symBinAddr: 0x100004420, symSize: 0x20 }
  - { offsetInCU: 0x12214, offset: 0x12214, size: 0x8, addend: 0x0, symName: __ZNKSt3__16vectorINS0_IiNS_9allocatorIiEEEENS1_IS3_EEE4dataB8ue170006Ev, symObjAddr: 0x3980, symBinAddr: 0x100004440, symSize: 0x20 }
  - { offsetInCU: 0x12239, offset: 0x12239, size: 0x8, addend: 0x0, symName: __ZNKSt3__16vectorINS0_IiNS_9allocatorIiEEEENS1_IS3_EEE8capacityB8ue170006Ev, symObjAddr: 0x39A0, symBinAddr: 0x100004460, symSize: 0x40 }
  - { offsetInCU: 0x1225E, offset: 0x1225E, size: 0x8, addend: 0x0, symName: __ZNKSt3__16vectorINS0_IiNS_9allocatorIiEEEENS1_IS3_EEE9__end_capB8ue170006Ev, symObjAddr: 0x39F0, symBinAddr: 0x1000044B0, symSize: 0x20 }
  - { offsetInCU: 0x12283, offset: 0x12283, size: 0x8, addend: 0x0, symName: __ZNKSt3__117__compressed_pairIPNS_6vectorIiNS_9allocatorIiEEEENS2_IS4_EEE5firstB8ue170006Ev, symObjAddr: 0x3A10, symBinAddr: 0x1000044D0, symSize: 0x20 }
  - { offsetInCU: 0x122A8, offset: 0x122A8, size: 0x8, addend: 0x0, symName: __ZNKSt3__122__compressed_pair_elemIPNS_6vectorIiNS_9allocatorIiEEEELi0ELb0EE5__getB8ue170006Ev, symObjAddr: 0x3A30, symBinAddr: 0x1000044F0, symSize: 0x10 }
  - { offsetInCU: 0x122E6, offset: 0x122E6, size: 0x8, addend: 0x0, symName: __ZNSt3__16vectorINS0_IiNS_9allocatorIiEEEENS1_IS3_EEE21_ConstructTransactionC1B8ue170006ERS5_m, symObjAddr: 0x3A40, symBinAddr: 0x100004500, symSize: 0x30 }
  - { offsetInCU: 0x1232D, offset: 0x1232D, size: 0x8, addend: 0x0, symName: __ZNSt3__116allocator_traitsINS_9allocatorINS_6vectorIiNS1_IiEEEEEEE9constructB8ue170006IS4_JRKS4_EvEEvRS5_PT_DpOT0_, symObjAddr: 0x3A70, symBinAddr: 0x100004530, symSize: 0x30 }
  - { offsetInCU: 0x12384, offset: 0x12384, size: 0x8, addend: 0x0, symName: __ZNSt3__16vectorINS0_IiNS_9allocatorIiEEEENS1_IS3_EEE21_ConstructTransactionD1B8ue170006Ev, symObjAddr: 0x3AA0, symBinAddr: 0x100004560, symSize: 0x20 }
  - { offsetInCU: 0x123AD, offset: 0x123AD, size: 0x8, addend: 0x0, symName: __ZNSt3__16vectorINS0_IiNS_9allocatorIiEEEENS1_IS3_EEE21_ConstructTransactionC2B8ue170006ERS5_m, symObjAddr: 0x3AC0, symBinAddr: 0x100004580, symSize: 0x40 }
  - { offsetInCU: 0x123F4, offset: 0x123F4, size: 0x8, addend: 0x0, symName: __ZNSt3__19allocatorINS_6vectorIiNS0_IiEEEEE9constructB8ue170006IS3_JRKS3_EEEvPT_DpOT0_, symObjAddr: 0x3B00, symBinAddr: 0x1000045C0, symSize: 0x30 }
  - { offsetInCU: 0x12449, offset: 0x12449, size: 0x8, addend: 0x0, symName: __ZNSt3__16vectorINS0_IiNS_9allocatorIiEEEENS1_IS3_EEE21_ConstructTransactionD2B8ue170006Ev, symObjAddr: 0x3B30, symBinAddr: 0x1000045F0, symSize: 0x20 }
  - { offsetInCU: 0x12472, offset: 0x12472, size: 0x8, addend: 0x0, symName: __ZNSt3__128__exception_guard_exceptionsINS_6vectorINS1_IiNS_9allocatorIiEEEENS2_IS4_EEE16__destroy_vectorEED2B8ue170006Ev, symObjAddr: 0x3B50, symBinAddr: 0x100004610, symSize: 0x40 }
  - { offsetInCU: 0x1249B, offset: 0x1249B, size: 0x8, addend: 0x0, symName: __ZNSt3__16vectorINS0_IiNS_9allocatorIiEEEENS1_IS3_EEE16__destroy_vectorclB8ue170006Ev, symObjAddr: 0x3B90, symBinAddr: 0x100004650, symSize: 0x80 }
  - { offsetInCU: 0x124C0, offset: 0x124C0, size: 0x8, addend: 0x0, symName: __ZNSt3__16vectorINS0_IiNS_9allocatorIiEEEENS1_IS3_EEE7__clearB8ue170006Ev, symObjAddr: 0x3C10, symBinAddr: 0x1000046D0, symSize: 0x20 }
  - { offsetInCU: 0x124E5, offset: 0x124E5, size: 0x8, addend: 0x0, symName: __ZNKSt3__16vectorINS0_IiNS_9allocatorIiEEEENS1_IS3_EEE17__annotate_deleteB8ue170006Ev, symObjAddr: 0x3C30, symBinAddr: 0x1000046F0, symSize: 0xB0 }
  - { offsetInCU: 0x1250A, offset: 0x1250A, size: 0x8, addend: 0x0, symName: __ZNSt3__116allocator_traitsINS_9allocatorINS_6vectorIiNS1_IiEEEEEEE10deallocateB8ue170006ERS5_PS4_m, symObjAddr: 0x3CE0, symBinAddr: 0x1000047A0, symSize: 0x30 }
  - { offsetInCU: 0x1254C, offset: 0x1254C, size: 0x8, addend: 0x0, symName: __ZNSt3__16vectorINS0_IiNS_9allocatorIiEEEENS1_IS3_EEE22__base_destruct_at_endB8ue170006EPS3_, symObjAddr: 0x3D10, symBinAddr: 0x1000047D0, symSize: 0x80 }
  - { offsetInCU: 0x1258F, offset: 0x1258F, size: 0x8, addend: 0x0, symName: __ZNSt3__116allocator_traitsINS_9allocatorINS_6vectorIiNS1_IiEEEEEEE7destroyB8ue170006IS4_vEEvRS5_PT_, symObjAddr: 0x3D90, symBinAddr: 0x100004850, symSize: 0x30 }
  - { offsetInCU: 0x125CC, offset: 0x125CC, size: 0x8, addend: 0x0, symName: __ZNSt3__19allocatorINS_6vectorIiNS0_IiEEEEE7destroyB8ue170006EPS3_, symObjAddr: 0x3DC0, symBinAddr: 0x100004880, symSize: 0x20 }
  - { offsetInCU: 0x125FF, offset: 0x125FF, size: 0x8, addend: 0x0, symName: __ZNKSt3__16vectorINS0_IiNS_9allocatorIiEEEENS1_IS3_EEE4sizeB8ue170006Ev, symObjAddr: 0x3DE0, symBinAddr: 0x1000048A0, symSize: 0x30 }
  - { offsetInCU: 0x12624, offset: 0x12624, size: 0x8, addend: 0x0, symName: __ZNSt3__19allocatorINS_6vectorIiNS0_IiEEEEE10deallocateB8ue170006EPS3_m, symObjAddr: 0x3E10, symBinAddr: 0x1000048D0, symSize: 0x50 }
  - { offsetInCU: 0x12665, offset: 0x12665, size: 0x8, addend: 0x0, symName: __ZNSt3__16vectorINS0_IiNS_9allocatorIiEEEENS1_IS3_EEED2B8ue170006Ev, symObjAddr: 0x3E60, symBinAddr: 0x100004920, symSize: 0x40 }
  - { offsetInCU: 0x1268E, offset: 0x1268E, size: 0x8, addend: 0x0, symName: __ZNSt3__16vectorIiNS_9allocatorIiEEEC2B8ue170006Ev, symObjAddr: 0x3EA0, symBinAddr: 0x100004960, symSize: 0x50 }
  - { offsetInCU: 0x126B7, offset: 0x126B7, size: 0x8, addend: 0x0, symName: __ZNSt3__16vectorINS0_INS0_IiNS_9allocatorIiEEEENS1_IS3_EEEENS1_IS5_EEEC2EmRKS5_, symObjAddr: 0x3EF0, symBinAddr: 0x1000049B0, symSize: 0xE0 }
  - { offsetInCU: 0x12715, offset: 0x12715, size: 0x8, addend: 0x0, symName: __ZNSt3__117__compressed_pairIPNS_6vectorINS1_IiNS_9allocatorIiEEEENS2_IS4_EEEENS2_IS6_EEEC1B8ue170006IDnNS_18__default_init_tagEEEOT_OT0_, symObjAddr: 0x3FD0, symBinAddr: 0x100004A90, symSize: 0x30 }
  - { offsetInCU: 0x1276C, offset: 0x1276C, size: 0x8, addend: 0x0, symName: __ZNSt3__16vectorINS0_INS0_IiNS_9allocatorIiEEEENS1_IS3_EEEENS1_IS5_EEE16__destroy_vectorC1B8ue170006ERS7_, symObjAddr: 0x4040, symBinAddr: 0x100004B00, symSize: 0x30 }
  - { offsetInCU: 0x127A4, offset: 0x127A4, size: 0x8, addend: 0x0, symName: __ZNSt3__16vectorINS0_INS0_IiNS_9allocatorIiEEEENS1_IS3_EEEENS1_IS5_EEE11__vallocateB8ue170006Em, symObjAddr: 0x4070, symBinAddr: 0x100004B30, symSize: 0xA0 }
  - { offsetInCU: 0x127E6, offset: 0x127E6, size: 0x8, addend: 0x0, symName: __ZNSt3__16vectorINS0_INS0_IiNS_9allocatorIiEEEENS1_IS3_EEEENS1_IS5_EEE18__construct_at_endEmRKS5_, symObjAddr: 0x4110, symBinAddr: 0x100004BD0, symSize: 0xC0 }
  - { offsetInCU: 0x12866, offset: 0x12866, size: 0x8, addend: 0x0, symName: __ZNSt3__128__exception_guard_exceptionsINS_6vectorINS1_INS1_IiNS_9allocatorIiEEEENS2_IS4_EEEENS2_IS6_EEE16__destroy_vectorEE10__completeB8ue170006Ev, symObjAddr: 0x41D0, symBinAddr: 0x100004C90, symSize: 0x20 }
  - { offsetInCU: 0x1288B, offset: 0x1288B, size: 0x8, addend: 0x0, symName: __ZNSt3__128__exception_guard_exceptionsINS_6vectorINS1_INS1_IiNS_9allocatorIiEEEENS2_IS4_EEEENS2_IS6_EEE16__destroy_vectorEED1B8ue170006Ev, symObjAddr: 0x41F0, symBinAddr: 0x100004CB0, symSize: 0x20 }
  - { offsetInCU: 0x128B4, offset: 0x128B4, size: 0x8, addend: 0x0, symName: __ZNSt3__117__compressed_pairIPNS_6vectorINS1_IiNS_9allocatorIiEEEENS2_IS4_EEEENS2_IS6_EEEC2B8ue170006IDnNS_18__default_init_tagEEEOT_OT0_, symObjAddr: 0x4210, symBinAddr: 0x100004CD0, symSize: 0x40 }
  - { offsetInCU: 0x1290B, offset: 0x1290B, size: 0x8, addend: 0x0, symName: __ZNSt3__122__compressed_pair_elemIPNS_6vectorINS1_IiNS_9allocatorIiEEEENS2_IS4_EEEELi0ELb0EEC2B8ue170006IDnvEEOT_, symObjAddr: 0x4250, symBinAddr: 0x100004D10, symSize: 0x20 }
  - { offsetInCU: 0x1294C, offset: 0x1294C, size: 0x8, addend: 0x0, symName: __ZNSt3__122__compressed_pair_elemINS_9allocatorINS_6vectorINS2_IiNS1_IiEEEENS1_IS4_EEEEEELi1ELb1EEC2B8ue170006ENS_18__default_init_tagE, symObjAddr: 0x4270, symBinAddr: 0x100004D30, symSize: 0x20 }
  - { offsetInCU: 0x12980, offset: 0x12980, size: 0x8, addend: 0x0, symName: __ZNSt3__19allocatorINS_6vectorINS1_IiNS0_IiEEEENS0_IS3_EEEEEC2B8ue170006Ev, symObjAddr: 0x4290, symBinAddr: 0x100004D50, symSize: 0x20 }
  - { offsetInCU: 0x129A9, offset: 0x129A9, size: 0x8, addend: 0x0, symName: __ZNSt3__116__non_trivial_ifILb1ENS_9allocatorINS_6vectorINS2_IiNS1_IiEEEENS1_IS4_EEEEEEEC2B8ue170006Ev, symObjAddr: 0x42B0, symBinAddr: 0x100004D70, symSize: 0x10 }
  - { offsetInCU: 0x129D2, offset: 0x129D2, size: 0x8, addend: 0x0, symName: __ZNSt3__128__exception_guard_exceptionsINS_6vectorINS1_INS1_IiNS_9allocatorIiEEEENS2_IS4_EEEENS2_IS6_EEE16__destroy_vectorEEC1B8ue170006ES9_, symObjAddr: 0x42C0, symBinAddr: 0x100004D80, symSize: 0x30 }
  - { offsetInCU: 0x12A09, offset: 0x12A09, size: 0x8, addend: 0x0, symName: __ZNSt3__128__exception_guard_exceptionsINS_6vectorINS1_INS1_IiNS_9allocatorIiEEEENS2_IS4_EEEENS2_IS6_EEE16__destroy_vectorEEC2B8ue170006ES9_, symObjAddr: 0x42F0, symBinAddr: 0x100004DB0, symSize: 0x20 }
  - { offsetInCU: 0x12A40, offset: 0x12A40, size: 0x8, addend: 0x0, symName: __ZNSt3__16vectorINS0_INS0_IiNS_9allocatorIiEEEENS1_IS3_EEEENS1_IS5_EEE16__destroy_vectorC2B8ue170006ERS7_, symObjAddr: 0x4310, symBinAddr: 0x100004DD0, symSize: 0x20 }
  - { offsetInCU: 0x12A77, offset: 0x12A77, size: 0x8, addend: 0x0, symName: __ZNKSt3__16vectorINS0_INS0_IiNS_9allocatorIiEEEENS1_IS3_EEEENS1_IS5_EEE8max_sizeEv, symObjAddr: 0x4330, symBinAddr: 0x100004DF0, symSize: 0x60 }
  - { offsetInCU: 0x12A9E, offset: 0x12A9E, size: 0x8, addend: 0x0, symName: __ZNKSt3__16vectorINS0_INS0_IiNS_9allocatorIiEEEENS1_IS3_EEEENS1_IS5_EEE20__throw_length_errorB8ue170006Ev, symObjAddr: 0x4390, symBinAddr: 0x100004E50, symSize: 0x20 }
  - { offsetInCU: 0x12AC3, offset: 0x12AC3, size: 0x8, addend: 0x0, symName: __ZNSt3__16vectorINS0_INS0_IiNS_9allocatorIiEEEENS1_IS3_EEEENS1_IS5_EEE7__allocB8ue170006Ev, symObjAddr: 0x43F0, symBinAddr: 0x100004EB0, symSize: 0x20 }
  - { offsetInCU: 0x12AE8, offset: 0x12AE8, size: 0x8, addend: 0x0, symName: __ZNSt3__16vectorINS0_INS0_IiNS_9allocatorIiEEEENS1_IS3_EEEENS1_IS5_EEE9__end_capB8ue170006Ev, symObjAddr: 0x4410, symBinAddr: 0x100004ED0, symSize: 0x20 }
  - { offsetInCU: 0x12B0D, offset: 0x12B0D, size: 0x8, addend: 0x0, symName: __ZNKSt3__16vectorINS0_INS0_IiNS_9allocatorIiEEEENS1_IS3_EEEENS1_IS5_EEE14__annotate_newB8ue170006Em, symObjAddr: 0x4430, symBinAddr: 0x100004EF0, symSize: 0xA0 }
  - { offsetInCU: 0x12B4B, offset: 0x12B4B, size: 0x8, addend: 0x0, symName: __ZNSt3__116allocator_traitsINS_9allocatorINS_6vectorINS2_IiNS1_IiEEEENS1_IS4_EEEEEEE8max_sizeB8ue170006IS7_vEEmRKS7_, symObjAddr: 0x44D0, symBinAddr: 0x100004F90, symSize: 0x20 }
  - { offsetInCU: 0x12B79, offset: 0x12B79, size: 0x8, addend: 0x0, symName: __ZNKSt3__16vectorINS0_INS0_IiNS_9allocatorIiEEEENS1_IS3_EEEENS1_IS5_EEE7__allocB8ue170006Ev, symObjAddr: 0x44F0, symBinAddr: 0x100004FB0, symSize: 0x20 }
  - { offsetInCU: 0x12B9E, offset: 0x12B9E, size: 0x8, addend: 0x0, symName: __ZNKSt3__19allocatorINS_6vectorINS1_IiNS0_IiEEEENS0_IS3_EEEEE8max_sizeB8ue170006Ev, symObjAddr: 0x4510, symBinAddr: 0x100004FD0, symSize: 0x20 }
  - { offsetInCU: 0x12BC3, offset: 0x12BC3, size: 0x8, addend: 0x0, symName: __ZNKSt3__117__compressed_pairIPNS_6vectorINS1_IiNS_9allocatorIiEEEENS2_IS4_EEEENS2_IS6_EEE6secondB8ue170006Ev, symObjAddr: 0x4530, symBinAddr: 0x100004FF0, symSize: 0x20 }
  - { offsetInCU: 0x12BE8, offset: 0x12BE8, size: 0x8, addend: 0x0, symName: __ZNKSt3__122__compressed_pair_elemINS_9allocatorINS_6vectorINS2_IiNS1_IiEEEENS1_IS4_EEEEEELi1ELb1EE5__getB8ue170006Ev, symObjAddr: 0x4550, symBinAddr: 0x100005010, symSize: 0x10 }
  - { offsetInCU: 0x12C0D, offset: 0x12C0D, size: 0x8, addend: 0x0, symName: __ZNSt3__19allocatorINS_6vectorINS1_IiNS0_IiEEEENS0_IS3_EEEEE8allocateB8ue170006Em, symObjAddr: 0x4560, symBinAddr: 0x100005020, symSize: 0x50 }
  - { offsetInCU: 0x12C40, offset: 0x12C40, size: 0x8, addend: 0x0, symName: __ZNSt3__117__compressed_pairIPNS_6vectorINS1_IiNS_9allocatorIiEEEENS2_IS4_EEEENS2_IS6_EEE6secondB8ue170006Ev, symObjAddr: 0x45B0, symBinAddr: 0x100005070, symSize: 0x20 }
  - { offsetInCU: 0x12C65, offset: 0x12C65, size: 0x8, addend: 0x0, symName: __ZNSt3__122__compressed_pair_elemINS_9allocatorINS_6vectorINS2_IiNS1_IiEEEENS1_IS4_EEEEEELi1ELb1EE5__getB8ue170006Ev, symObjAddr: 0x45D0, symBinAddr: 0x100005090, symSize: 0x10 }
  - { offsetInCU: 0x12C8A, offset: 0x12C8A, size: 0x8, addend: 0x0, symName: __ZNSt3__117__compressed_pairIPNS_6vectorINS1_IiNS_9allocatorIiEEEENS2_IS4_EEEENS2_IS6_EEE5firstB8ue170006Ev, symObjAddr: 0x45E0, symBinAddr: 0x1000050A0, symSize: 0x20 }
  - { offsetInCU: 0x12CAF, offset: 0x12CAF, size: 0x8, addend: 0x0, symName: __ZNSt3__122__compressed_pair_elemIPNS_6vectorINS1_IiNS_9allocatorIiEEEENS2_IS4_EEEELi0ELb0EE5__getB8ue170006Ev, symObjAddr: 0x4600, symBinAddr: 0x1000050C0, symSize: 0x10 }
  - { offsetInCU: 0x12CD4, offset: 0x12CD4, size: 0x8, addend: 0x0, symName: __ZNKSt3__16vectorINS0_INS0_IiNS_9allocatorIiEEEENS1_IS3_EEEENS1_IS5_EEE31__annotate_contiguous_containerB8ue170006EPKvS9_S9_S9_, symObjAddr: 0x4610, symBinAddr: 0x1000050D0, symSize: 0x20 }
  - { offsetInCU: 0x12D25, offset: 0x12D25, size: 0x8, addend: 0x0, symName: __ZNKSt3__16vectorINS0_INS0_IiNS_9allocatorIiEEEENS1_IS3_EEEENS1_IS5_EEE4dataB8ue170006Ev, symObjAddr: 0x4630, symBinAddr: 0x1000050F0, symSize: 0x20 }
  - { offsetInCU: 0x12D4A, offset: 0x12D4A, size: 0x8, addend: 0x0, symName: __ZNKSt3__16vectorINS0_INS0_IiNS_9allocatorIiEEEENS1_IS3_EEEENS1_IS5_EEE8capacityB8ue170006Ev, symObjAddr: 0x4650, symBinAddr: 0x100005110, symSize: 0x40 }
  - { offsetInCU: 0x12D6F, offset: 0x12D6F, size: 0x8, addend: 0x0, symName: __ZNKSt3__16vectorINS0_INS0_IiNS_9allocatorIiEEEENS1_IS3_EEEENS1_IS5_EEE9__end_capB8ue170006Ev, symObjAddr: 0x46A0, symBinAddr: 0x100005160, symSize: 0x20 }
  - { offsetInCU: 0x12D94, offset: 0x12D94, size: 0x8, addend: 0x0, symName: __ZNKSt3__117__compressed_pairIPNS_6vectorINS1_IiNS_9allocatorIiEEEENS2_IS4_EEEENS2_IS6_EEE5firstB8ue170006Ev, symObjAddr: 0x46C0, symBinAddr: 0x100005180, symSize: 0x20 }
  - { offsetInCU: 0x12DB9, offset: 0x12DB9, size: 0x8, addend: 0x0, symName: __ZNKSt3__122__compressed_pair_elemIPNS_6vectorINS1_IiNS_9allocatorIiEEEENS2_IS4_EEEELi0ELb0EE5__getB8ue170006Ev, symObjAddr: 0x46E0, symBinAddr: 0x1000051A0, symSize: 0x10 }
  - { offsetInCU: 0x12DF7, offset: 0x12DF7, size: 0x8, addend: 0x0, symName: __ZNSt3__16vectorINS0_INS0_IiNS_9allocatorIiEEEENS1_IS3_EEEENS1_IS5_EEE21_ConstructTransactionC1B8ue170006ERS7_m, symObjAddr: 0x46F0, symBinAddr: 0x1000051B0, symSize: 0x30 }
  - { offsetInCU: 0x12E3E, offset: 0x12E3E, size: 0x8, addend: 0x0, symName: __ZNSt3__116allocator_traitsINS_9allocatorINS_6vectorINS2_IiNS1_IiEEEENS1_IS4_EEEEEEE9constructB8ue170006IS6_JRKS6_EvEEvRS7_PT_DpOT0_, symObjAddr: 0x4720, symBinAddr: 0x1000051E0, symSize: 0x30 }
  - { offsetInCU: 0x12E95, offset: 0x12E95, size: 0x8, addend: 0x0, symName: __ZNSt3__16vectorINS0_INS0_IiNS_9allocatorIiEEEENS1_IS3_EEEENS1_IS5_EEE21_ConstructTransactionD1B8ue170006Ev, symObjAddr: 0x4750, symBinAddr: 0x100005210, symSize: 0x20 }
  - { offsetInCU: 0x12EBE, offset: 0x12EBE, size: 0x8, addend: 0x0, symName: __ZNSt3__16vectorINS0_INS0_IiNS_9allocatorIiEEEENS1_IS3_EEEENS1_IS5_EEE21_ConstructTransactionC2B8ue170006ERS7_m, symObjAddr: 0x4770, symBinAddr: 0x100005230, symSize: 0x40 }
  - { offsetInCU: 0x12F05, offset: 0x12F05, size: 0x8, addend: 0x0, symName: __ZNSt3__19allocatorINS_6vectorINS1_IiNS0_IiEEEENS0_IS3_EEEEE9constructB8ue170006IS5_JRKS5_EEEvPT_DpOT0_, symObjAddr: 0x47B0, symBinAddr: 0x100005270, symSize: 0x30 }
  - { offsetInCU: 0x12F5A, offset: 0x12F5A, size: 0x8, addend: 0x0, symName: __ZNSt3__16vectorINS0_IiNS_9allocatorIiEEEENS1_IS3_EEEC1ERKS5_, symObjAddr: 0x47E0, symBinAddr: 0x1000052A0, symSize: 0x30 }
  - { offsetInCU: 0x12F94, offset: 0x12F94, size: 0x8, addend: 0x0, symName: __ZNSt3__16vectorINS0_IiNS_9allocatorIiEEEENS1_IS3_EEEC2ERKS5_, symObjAddr: 0x4810, symBinAddr: 0x1000052D0, symSize: 0xA0 }
  - { offsetInCU: 0x12FCE, offset: 0x12FCE, size: 0x8, addend: 0x0, symName: __ZNSt3__116allocator_traitsINS_9allocatorINS_6vectorIiNS1_IiEEEEEEE37select_on_container_copy_constructionB8ue170006IS5_vvEES5_RKS5_, symObjAddr: 0x48B0, symBinAddr: 0x100005370, symSize: 0x10 }
  - { offsetInCU: 0x13002, offset: 0x13002, size: 0x8, addend: 0x0, symName: __ZNSt3__117__compressed_pairIPNS_6vectorIiNS_9allocatorIiEEEENS2_IS4_EEEC1B8ue170006IDnS6_EEOT_OT0_, symObjAddr: 0x48C0, symBinAddr: 0x100005380, symSize: 0x30 }
  - { offsetInCU: 0x13059, offset: 0x13059, size: 0x8, addend: 0x0, symName: __ZNSt3__16vectorINS0_IiNS_9allocatorIiEEEENS1_IS3_EEE16__init_with_sizeB8ue170006IPS3_S7_EEvT_T0_m, symObjAddr: 0x48F0, symBinAddr: 0x1000053B0, symSize: 0xB0 }
  - { offsetInCU: 0x130CC, offset: 0x130CC, size: 0x8, addend: 0x0, symName: __ZNSt3__117__compressed_pairIPNS_6vectorIiNS_9allocatorIiEEEENS2_IS4_EEEC2B8ue170006IDnS6_EEOT_OT0_, symObjAddr: 0x49A0, symBinAddr: 0x100005460, symSize: 0x40 }
  - { offsetInCU: 0x13123, offset: 0x13123, size: 0x8, addend: 0x0, symName: __ZNSt3__122__compressed_pair_elemINS_9allocatorINS_6vectorIiNS1_IiEEEEEELi1ELb1EEC2B8ue170006IS5_vEEOT_, symObjAddr: 0x49E0, symBinAddr: 0x1000054A0, symSize: 0x10 }
  - { offsetInCU: 0x13163, offset: 0x13163, size: 0x8, addend: 0x0, symName: __ZNSt3__16vectorINS0_IiNS_9allocatorIiEEEENS1_IS3_EEE18__construct_at_endIPS3_S7_EEvT_T0_m, symObjAddr: 0x49F0, symBinAddr: 0x1000054B0, symSize: 0x90 }
  - { offsetInCU: 0x131F6, offset: 0x131F6, size: 0x8, addend: 0x0, symName: __ZNSt3__14pairIPNS_6vectorIiNS_9allocatorIiEEEES5_EC1B8ue170006IS5_S5_LPv0EEEOT_OT0_, symObjAddr: 0x4CE0, symBinAddr: 0x1000057A0, symSize: 0x30 }
  - { offsetInCU: 0x13253, offset: 0x13253, size: 0x8, addend: 0x0, symName: __ZNSt3__14pairIPNS_6vectorIiNS_9allocatorIiEEEES5_EC2B8ue170006IS5_S5_LPv0EEEOT_OT0_, symObjAddr: 0x4D10, symBinAddr: 0x1000057D0, symSize: 0x30 }
  - { offsetInCU: 0x132B0, offset: 0x132B0, size: 0x8, addend: 0x0, symName: __ZNSt3__129_AllocatorDestroyRangeReverseINS_9allocatorINS_6vectorIiNS1_IiEEEEEEPS4_EC1B8ue170006ERS5_RS6_S9_, symObjAddr: 0x4DA0, symBinAddr: 0x100005860, symSize: 0x40 }
  - { offsetInCU: 0x13306, offset: 0x13306, size: 0x8, addend: 0x0, symName: __ZNSt3__116allocator_traitsINS_9allocatorINS_6vectorIiNS1_IiEEEEEEE9constructB8ue170006IS4_JRS4_EvEEvRS5_PT_DpOT0_, symObjAddr: 0x4DE0, symBinAddr: 0x1000058A0, symSize: 0x30 }
  - { offsetInCU: 0x1335D, offset: 0x1335D, size: 0x8, addend: 0x0, symName: __ZNSt3__128__exception_guard_exceptionsINS_29_AllocatorDestroyRangeReverseINS_9allocatorINS_6vectorIiNS2_IiEEEEEEPS5_EEE10__completeB8ue170006Ev, symObjAddr: 0x4E10, symBinAddr: 0x1000058D0, symSize: 0x20 }
  - { offsetInCU: 0x13382, offset: 0x13382, size: 0x8, addend: 0x0, symName: __ZNSt3__128__exception_guard_exceptionsINS_29_AllocatorDestroyRangeReverseINS_9allocatorINS_6vectorIiNS2_IiEEEEEEPS5_EEED1B8ue170006Ev, symObjAddr: 0x4E30, symBinAddr: 0x1000058F0, symSize: 0x20 }
  - { offsetInCU: 0x133AB, offset: 0x133AB, size: 0x8, addend: 0x0, symName: __ZNSt3__128__exception_guard_exceptionsINS_29_AllocatorDestroyRangeReverseINS_9allocatorINS_6vectorIiNS2_IiEEEEEEPS5_EEEC1B8ue170006ES8_, symObjAddr: 0x4E50, symBinAddr: 0x100005910, symSize: 0x40 }
  - { offsetInCU: 0x133E2, offset: 0x133E2, size: 0x8, addend: 0x0, symName: __ZNSt3__128__exception_guard_exceptionsINS_29_AllocatorDestroyRangeReverseINS_9allocatorINS_6vectorIiNS2_IiEEEEEEPS5_EEEC2B8ue170006ES8_, symObjAddr: 0x4E90, symBinAddr: 0x100005950, symSize: 0x30 }
  - { offsetInCU: 0x13419, offset: 0x13419, size: 0x8, addend: 0x0, symName: __ZNSt3__129_AllocatorDestroyRangeReverseINS_9allocatorINS_6vectorIiNS1_IiEEEEEEPS4_EC2B8ue170006ERS5_RS6_S9_, symObjAddr: 0x4EC0, symBinAddr: 0x100005980, symSize: 0x40 }
  - { offsetInCU: 0x1346F, offset: 0x1346F, size: 0x8, addend: 0x0, symName: __ZNSt3__19allocatorINS_6vectorIiNS0_IiEEEEE9constructB8ue170006IS3_JRS3_EEEvPT_DpOT0_, symObjAddr: 0x4F00, symBinAddr: 0x1000059C0, symSize: 0x30 }
  - { offsetInCU: 0x134C4, offset: 0x134C4, size: 0x8, addend: 0x0, symName: __ZNSt3__128__exception_guard_exceptionsINS_29_AllocatorDestroyRangeReverseINS_9allocatorINS_6vectorIiNS2_IiEEEEEEPS5_EEED2B8ue170006Ev, symObjAddr: 0x4F30, symBinAddr: 0x1000059F0, symSize: 0x40 }
  - { offsetInCU: 0x134ED, offset: 0x134ED, size: 0x8, addend: 0x0, symName: __ZNKSt3__129_AllocatorDestroyRangeReverseINS_9allocatorINS_6vectorIiNS1_IiEEEEEEPS4_EclB8ue170006Ev, symObjAddr: 0x4F70, symBinAddr: 0x100005A30, symSize: 0x60 }
  - { offsetInCU: 0x13512, offset: 0x13512, size: 0x8, addend: 0x0, symName: __ZNSt3__116reverse_iteratorIPNS_6vectorIiNS_9allocatorIiEEEEEC1B8ue170006ES5_, symObjAddr: 0x5040, symBinAddr: 0x100005B00, symSize: 0x30 }
  - { offsetInCU: 0x13549, offset: 0x13549, size: 0x8, addend: 0x0, symName: __ZNSt3__116reverse_iteratorIPNS_6vectorIiNS_9allocatorIiEEEEEppB8ue170006Ev, symObjAddr: 0x50D0, symBinAddr: 0x100005B90, symSize: 0x20 }
  - { offsetInCU: 0x1356E, offset: 0x1356E, size: 0x8, addend: 0x0, symName: __ZNKSt3__116reverse_iteratorIPNS_6vectorIiNS_9allocatorIiEEEEE4baseB8ue170006Ev, symObjAddr: 0x50F0, symBinAddr: 0x100005BB0, symSize: 0x20 }
  - { offsetInCU: 0x13598, offset: 0x13598, size: 0x8, addend: 0x0, symName: __ZNSt3__119__to_address_helperINS_16reverse_iteratorIPNS_6vectorIiNS_9allocatorIiEEEEEEvE6__callB8ue170006ERKS7_, symObjAddr: 0x5110, symBinAddr: 0x100005BD0, symSize: 0x40 }
  - { offsetInCU: 0x135BB, offset: 0x135BB, size: 0x8, addend: 0x0, symName: __ZNKSt3__116reverse_iteratorIPNS_6vectorIiNS_9allocatorIiEEEEEptB8ue170006Ev, symObjAddr: 0x5150, symBinAddr: 0x100005C10, symSize: 0x20 }
  - { offsetInCU: 0x135E0, offset: 0x135E0, size: 0x8, addend: 0x0, symName: __ZNKSt3__116reverse_iteratorIPNS_6vectorIiNS_9allocatorIiEEEEEdeB8ue170006Ev, symObjAddr: 0x5170, symBinAddr: 0x100005C30, symSize: 0x30 }
  - { offsetInCU: 0x13613, offset: 0x13613, size: 0x8, addend: 0x0, symName: __ZNSt3__116reverse_iteratorIPNS_6vectorIiNS_9allocatorIiEEEEEC2B8ue170006ES5_, symObjAddr: 0x51A0, symBinAddr: 0x100005C60, symSize: 0x30 }
  - { offsetInCU: 0x1364A, offset: 0x1364A, size: 0x8, addend: 0x0, symName: __ZNSt3__118__unwrap_iter_implIPNS_6vectorIiNS_9allocatorIiEEEELb1EE8__unwrapB8ue170006ES5_, symObjAddr: 0x51D0, symBinAddr: 0x100005C90, symSize: 0x20 }
  - { offsetInCU: 0x1366D, offset: 0x1366D, size: 0x8, addend: 0x0, symName: __ZNSt3__118__unwrap_iter_implIPNS_6vectorIiNS_9allocatorIiEEEELb1EE8__rewrapB8ue170006ES5_S5_, symObjAddr: 0x51F0, symBinAddr: 0x100005CB0, symSize: 0x60 }
  - { offsetInCU: 0x1369E, offset: 0x1369E, size: 0x8, addend: 0x0, symName: __ZNSt3__16vectorINS0_INS0_IiNS_9allocatorIiEEEENS1_IS3_EEEENS1_IS5_EEE21_ConstructTransactionD2B8ue170006Ev, symObjAddr: 0x5250, symBinAddr: 0x100005D10, symSize: 0x20 }
  - { offsetInCU: 0x136C7, offset: 0x136C7, size: 0x8, addend: 0x0, symName: __ZNSt3__128__exception_guard_exceptionsINS_6vectorINS1_INS1_IiNS_9allocatorIiEEEENS2_IS4_EEEENS2_IS6_EEE16__destroy_vectorEED2B8ue170006Ev, symObjAddr: 0x5270, symBinAddr: 0x100005D30, symSize: 0x40 }
  - { offsetInCU: 0x136F0, offset: 0x136F0, size: 0x8, addend: 0x0, symName: __ZNSt3__16vectorINS0_INS0_IiNS_9allocatorIiEEEENS1_IS3_EEEENS1_IS5_EEE16__destroy_vectorclB8ue170006Ev, symObjAddr: 0x52B0, symBinAddr: 0x100005D70, symSize: 0x80 }
  - { offsetInCU: 0x13715, offset: 0x13715, size: 0x8, addend: 0x0, symName: __ZNSt3__16vectorINS0_INS0_IiNS_9allocatorIiEEEENS1_IS3_EEEENS1_IS5_EEE7__clearB8ue170006Ev, symObjAddr: 0x5330, symBinAddr: 0x100005DF0, symSize: 0x20 }
  - { offsetInCU: 0x1373A, offset: 0x1373A, size: 0x8, addend: 0x0, symName: __ZNKSt3__16vectorINS0_INS0_IiNS_9allocatorIiEEEENS1_IS3_EEEENS1_IS5_EEE17__annotate_deleteB8ue170006Ev, symObjAddr: 0x5350, symBinAddr: 0x100005E10, symSize: 0xB0 }
  - { offsetInCU: 0x1375F, offset: 0x1375F, size: 0x8, addend: 0x0, symName: __ZNSt3__116allocator_traitsINS_9allocatorINS_6vectorINS2_IiNS1_IiEEEENS1_IS4_EEEEEEE10deallocateB8ue170006ERS7_PS6_m, symObjAddr: 0x5400, symBinAddr: 0x100005EC0, symSize: 0x30 }
  - { offsetInCU: 0x137A1, offset: 0x137A1, size: 0x8, addend: 0x0, symName: __ZNSt3__16vectorINS0_INS0_IiNS_9allocatorIiEEEENS1_IS3_EEEENS1_IS5_EEE22__base_destruct_at_endB8ue170006EPS5_, symObjAddr: 0x5430, symBinAddr: 0x100005EF0, symSize: 0x80 }
  - { offsetInCU: 0x137E4, offset: 0x137E4, size: 0x8, addend: 0x0, symName: __ZNSt3__116allocator_traitsINS_9allocatorINS_6vectorINS2_IiNS1_IiEEEENS1_IS4_EEEEEEE7destroyB8ue170006IS6_vEEvRS7_PT_, symObjAddr: 0x54B0, symBinAddr: 0x100005F70, symSize: 0x30 }
  - { offsetInCU: 0x13821, offset: 0x13821, size: 0x8, addend: 0x0, symName: __ZNSt3__19allocatorINS_6vectorINS1_IiNS0_IiEEEENS0_IS3_EEEEE7destroyB8ue170006EPS5_, symObjAddr: 0x54E0, symBinAddr: 0x100005FA0, symSize: 0x20 }
  - { offsetInCU: 0x13854, offset: 0x13854, size: 0x8, addend: 0x0, symName: __ZNKSt3__16vectorINS0_INS0_IiNS_9allocatorIiEEEENS1_IS3_EEEENS1_IS5_EEE4sizeB8ue170006Ev, symObjAddr: 0x5500, symBinAddr: 0x100005FC0, symSize: 0x30 }
  - { offsetInCU: 0x13879, offset: 0x13879, size: 0x8, addend: 0x0, symName: __ZNSt3__19allocatorINS_6vectorINS1_IiNS0_IiEEEENS0_IS3_EEEEE10deallocateB8ue170006EPS5_m, symObjAddr: 0x5530, symBinAddr: 0x100005FF0, symSize: 0x50 }
  - { offsetInCU: 0x138BA, offset: 0x138BA, size: 0x8, addend: 0x0, symName: __ZNSt3__16vectorINS0_INS0_IiNS_9allocatorIiEEEENS1_IS3_EEEENS1_IS5_EEED2B8ue170006Ev, symObjAddr: 0x5580, symBinAddr: 0x100006040, symSize: 0x40 }
  - { offsetInCU: 0x138E3, offset: 0x138E3, size: 0x8, addend: 0x0, symName: __ZNSt3__16vectorINS0_INS0_INS0_IiNS_9allocatorIiEEEENS1_IS3_EEEENS1_IS5_EEEENS1_IS7_EEEC2EmRKS7_, symObjAddr: 0x55C0, symBinAddr: 0x100006080, symSize: 0xE0 }
  - { offsetInCU: 0x13941, offset: 0x13941, size: 0x8, addend: 0x0, symName: __ZNSt3__117__compressed_pairIPNS_6vectorINS1_INS1_IiNS_9allocatorIiEEEENS2_IS4_EEEENS2_IS6_EEEENS2_IS8_EEEC1B8ue170006IDnNS_18__default_init_tagEEEOT_OT0_, symObjAddr: 0x56A0, symBinAddr: 0x100006160, symSize: 0x30 }
  - { offsetInCU: 0x13998, offset: 0x13998, size: 0x8, addend: 0x0, symName: __ZNSt3__16vectorINS0_INS0_INS0_IiNS_9allocatorIiEEEENS1_IS3_EEEENS1_IS5_EEEENS1_IS7_EEE16__destroy_vectorC1B8ue170006ERS9_, symObjAddr: 0x5710, symBinAddr: 0x1000061D0, symSize: 0x30 }
  - { offsetInCU: 0x139D0, offset: 0x139D0, size: 0x8, addend: 0x0, symName: __ZNSt3__16vectorINS0_INS0_INS0_IiNS_9allocatorIiEEEENS1_IS3_EEEENS1_IS5_EEEENS1_IS7_EEE11__vallocateB8ue170006Em, symObjAddr: 0x5740, symBinAddr: 0x100006200, symSize: 0xA0 }
  - { offsetInCU: 0x13A12, offset: 0x13A12, size: 0x8, addend: 0x0, symName: __ZNSt3__16vectorINS0_INS0_INS0_IiNS_9allocatorIiEEEENS1_IS3_EEEENS1_IS5_EEEENS1_IS7_EEE18__construct_at_endEmRKS7_, symObjAddr: 0x57E0, symBinAddr: 0x1000062A0, symSize: 0xC0 }
  - { offsetInCU: 0x13A92, offset: 0x13A92, size: 0x8, addend: 0x0, symName: __ZNSt3__128__exception_guard_exceptionsINS_6vectorINS1_INS1_INS1_IiNS_9allocatorIiEEEENS2_IS4_EEEENS2_IS6_EEEENS2_IS8_EEE16__destroy_vectorEE10__completeB8ue170006Ev, symObjAddr: 0x58A0, symBinAddr: 0x100006360, symSize: 0x20 }
  - { offsetInCU: 0x13AB7, offset: 0x13AB7, size: 0x8, addend: 0x0, symName: __ZNSt3__128__exception_guard_exceptionsINS_6vectorINS1_INS1_INS1_IiNS_9allocatorIiEEEENS2_IS4_EEEENS2_IS6_EEEENS2_IS8_EEE16__destroy_vectorEED1B8ue170006Ev, symObjAddr: 0x58C0, symBinAddr: 0x100006380, symSize: 0x20 }
  - { offsetInCU: 0x13AE0, offset: 0x13AE0, size: 0x8, addend: 0x0, symName: __ZNSt3__117__compressed_pairIPNS_6vectorINS1_INS1_IiNS_9allocatorIiEEEENS2_IS4_EEEENS2_IS6_EEEENS2_IS8_EEEC2B8ue170006IDnNS_18__default_init_tagEEEOT_OT0_, symObjAddr: 0x58E0, symBinAddr: 0x1000063A0, symSize: 0x40 }
  - { offsetInCU: 0x13B37, offset: 0x13B37, size: 0x8, addend: 0x0, symName: __ZNSt3__122__compressed_pair_elemIPNS_6vectorINS1_INS1_IiNS_9allocatorIiEEEENS2_IS4_EEEENS2_IS6_EEEELi0ELb0EEC2B8ue170006IDnvEEOT_, symObjAddr: 0x5920, symBinAddr: 0x1000063E0, symSize: 0x20 }
  - { offsetInCU: 0x13B78, offset: 0x13B78, size: 0x8, addend: 0x0, symName: __ZNSt3__122__compressed_pair_elemINS_9allocatorINS_6vectorINS2_INS2_IiNS1_IiEEEENS1_IS4_EEEENS1_IS6_EEEEEELi1ELb1EEC2B8ue170006ENS_18__default_init_tagE, symObjAddr: 0x5940, symBinAddr: 0x100006400, symSize: 0x20 }
  - { offsetInCU: 0x13BAC, offset: 0x13BAC, size: 0x8, addend: 0x0, symName: __ZNSt3__19allocatorINS_6vectorINS1_INS1_IiNS0_IiEEEENS0_IS3_EEEENS0_IS5_EEEEEC2B8ue170006Ev, symObjAddr: 0x5960, symBinAddr: 0x100006420, symSize: 0x20 }
  - { offsetInCU: 0x13BD5, offset: 0x13BD5, size: 0x8, addend: 0x0, symName: __ZNSt3__116__non_trivial_ifILb1ENS_9allocatorINS_6vectorINS2_INS2_IiNS1_IiEEEENS1_IS4_EEEENS1_IS6_EEEEEEEC2B8ue170006Ev, symObjAddr: 0x5980, symBinAddr: 0x100006440, symSize: 0x10 }
  - { offsetInCU: 0x13BFE, offset: 0x13BFE, size: 0x8, addend: 0x0, symName: __ZNSt3__128__exception_guard_exceptionsINS_6vectorINS1_INS1_INS1_IiNS_9allocatorIiEEEENS2_IS4_EEEENS2_IS6_EEEENS2_IS8_EEE16__destroy_vectorEEC1B8ue170006ESB_, symObjAddr: 0x5990, symBinAddr: 0x100006450, symSize: 0x30 }
  - { offsetInCU: 0x13C35, offset: 0x13C35, size: 0x8, addend: 0x0, symName: __ZNSt3__128__exception_guard_exceptionsINS_6vectorINS1_INS1_INS1_IiNS_9allocatorIiEEEENS2_IS4_EEEENS2_IS6_EEEENS2_IS8_EEE16__destroy_vectorEEC2B8ue170006ESB_, symObjAddr: 0x59C0, symBinAddr: 0x100006480, symSize: 0x20 }
  - { offsetInCU: 0x13C6C, offset: 0x13C6C, size: 0x8, addend: 0x0, symName: __ZNSt3__16vectorINS0_INS0_INS0_IiNS_9allocatorIiEEEENS1_IS3_EEEENS1_IS5_EEEENS1_IS7_EEE16__destroy_vectorC2B8ue170006ERS9_, symObjAddr: 0x59E0, symBinAddr: 0x1000064A0, symSize: 0x20 }
  - { offsetInCU: 0x13CA3, offset: 0x13CA3, size: 0x8, addend: 0x0, symName: __ZNKSt3__16vectorINS0_INS0_INS0_IiNS_9allocatorIiEEEENS1_IS3_EEEENS1_IS5_EEEENS1_IS7_EEE8max_sizeEv, symObjAddr: 0x5A00, symBinAddr: 0x1000064C0, symSize: 0x60 }
  - { offsetInCU: 0x13CCA, offset: 0x13CCA, size: 0x8, addend: 0x0, symName: __ZNKSt3__16vectorINS0_INS0_INS0_IiNS_9allocatorIiEEEENS1_IS3_EEEENS1_IS5_EEEENS1_IS7_EEE20__throw_length_errorB8ue170006Ev, symObjAddr: 0x5A60, symBinAddr: 0x100006520, symSize: 0x20 }
  - { offsetInCU: 0x13CEF, offset: 0x13CEF, size: 0x8, addend: 0x0, symName: __ZNSt3__16vectorINS0_INS0_INS0_IiNS_9allocatorIiEEEENS1_IS3_EEEENS1_IS5_EEEENS1_IS7_EEE7__allocB8ue170006Ev, symObjAddr: 0x5AC0, symBinAddr: 0x100006580, symSize: 0x20 }
  - { offsetInCU: 0x13D14, offset: 0x13D14, size: 0x8, addend: 0x0, symName: __ZNSt3__16vectorINS0_INS0_INS0_IiNS_9allocatorIiEEEENS1_IS3_EEEENS1_IS5_EEEENS1_IS7_EEE9__end_capB8ue170006Ev, symObjAddr: 0x5AE0, symBinAddr: 0x1000065A0, symSize: 0x20 }
  - { offsetInCU: 0x13D39, offset: 0x13D39, size: 0x8, addend: 0x0, symName: __ZNKSt3__16vectorINS0_INS0_INS0_IiNS_9allocatorIiEEEENS1_IS3_EEEENS1_IS5_EEEENS1_IS7_EEE14__annotate_newB8ue170006Em, symObjAddr: 0x5B00, symBinAddr: 0x1000065C0, symSize: 0xA0 }
  - { offsetInCU: 0x13D77, offset: 0x13D77, size: 0x8, addend: 0x0, symName: __ZNSt3__116allocator_traitsINS_9allocatorINS_6vectorINS2_INS2_IiNS1_IiEEEENS1_IS4_EEEENS1_IS6_EEEEEEE8max_sizeB8ue170006IS9_vEEmRKS9_, symObjAddr: 0x5BA0, symBinAddr: 0x100006660, symSize: 0x20 }
  - { offsetInCU: 0x13DA5, offset: 0x13DA5, size: 0x8, addend: 0x0, symName: __ZNKSt3__16vectorINS0_INS0_INS0_IiNS_9allocatorIiEEEENS1_IS3_EEEENS1_IS5_EEEENS1_IS7_EEE7__allocB8ue170006Ev, symObjAddr: 0x5BC0, symBinAddr: 0x100006680, symSize: 0x20 }
  - { offsetInCU: 0x13DCA, offset: 0x13DCA, size: 0x8, addend: 0x0, symName: __ZNKSt3__19allocatorINS_6vectorINS1_INS1_IiNS0_IiEEEENS0_IS3_EEEENS0_IS5_EEEEE8max_sizeB8ue170006Ev, symObjAddr: 0x5BE0, symBinAddr: 0x1000066A0, symSize: 0x20 }
  - { offsetInCU: 0x13DEF, offset: 0x13DEF, size: 0x8, addend: 0x0, symName: __ZNKSt3__117__compressed_pairIPNS_6vectorINS1_INS1_IiNS_9allocatorIiEEEENS2_IS4_EEEENS2_IS6_EEEENS2_IS8_EEE6secondB8ue170006Ev, symObjAddr: 0x5C00, symBinAddr: 0x1000066C0, symSize: 0x20 }
  - { offsetInCU: 0x13E14, offset: 0x13E14, size: 0x8, addend: 0x0, symName: __ZNKSt3__122__compressed_pair_elemINS_9allocatorINS_6vectorINS2_INS2_IiNS1_IiEEEENS1_IS4_EEEENS1_IS6_EEEEEELi1ELb1EE5__getB8ue170006Ev, symObjAddr: 0x5C20, symBinAddr: 0x1000066E0, symSize: 0x10 }
  - { offsetInCU: 0x13E39, offset: 0x13E39, size: 0x8, addend: 0x0, symName: __ZNSt3__19allocatorINS_6vectorINS1_INS1_IiNS0_IiEEEENS0_IS3_EEEENS0_IS5_EEEEE8allocateB8ue170006Em, symObjAddr: 0x5C30, symBinAddr: 0x1000066F0, symSize: 0x50 }
  - { offsetInCU: 0x13E6C, offset: 0x13E6C, size: 0x8, addend: 0x0, symName: __ZNSt3__117__compressed_pairIPNS_6vectorINS1_INS1_IiNS_9allocatorIiEEEENS2_IS4_EEEENS2_IS6_EEEENS2_IS8_EEE6secondB8ue170006Ev, symObjAddr: 0x5C80, symBinAddr: 0x100006740, symSize: 0x20 }
  - { offsetInCU: 0x13E91, offset: 0x13E91, size: 0x8, addend: 0x0, symName: __ZNSt3__122__compressed_pair_elemINS_9allocatorINS_6vectorINS2_INS2_IiNS1_IiEEEENS1_IS4_EEEENS1_IS6_EEEEEELi1ELb1EE5__getB8ue170006Ev, symObjAddr: 0x5CA0, symBinAddr: 0x100006760, symSize: 0x10 }
  - { offsetInCU: 0x13EB6, offset: 0x13EB6, size: 0x8, addend: 0x0, symName: __ZNSt3__117__compressed_pairIPNS_6vectorINS1_INS1_IiNS_9allocatorIiEEEENS2_IS4_EEEENS2_IS6_EEEENS2_IS8_EEE5firstB8ue170006Ev, symObjAddr: 0x5CB0, symBinAddr: 0x100006770, symSize: 0x20 }
  - { offsetInCU: 0x13EDB, offset: 0x13EDB, size: 0x8, addend: 0x0, symName: __ZNSt3__122__compressed_pair_elemIPNS_6vectorINS1_INS1_IiNS_9allocatorIiEEEENS2_IS4_EEEENS2_IS6_EEEELi0ELb0EE5__getB8ue170006Ev, symObjAddr: 0x5CD0, symBinAddr: 0x100006790, symSize: 0x10 }
  - { offsetInCU: 0x13F00, offset: 0x13F00, size: 0x8, addend: 0x0, symName: __ZNKSt3__16vectorINS0_INS0_INS0_IiNS_9allocatorIiEEEENS1_IS3_EEEENS1_IS5_EEEENS1_IS7_EEE31__annotate_contiguous_containerB8ue170006EPKvSB_SB_SB_, symObjAddr: 0x5CE0, symBinAddr: 0x1000067A0, symSize: 0x20 }
  - { offsetInCU: 0x13F51, offset: 0x13F51, size: 0x8, addend: 0x0, symName: __ZNKSt3__16vectorINS0_INS0_INS0_IiNS_9allocatorIiEEEENS1_IS3_EEEENS1_IS5_EEEENS1_IS7_EEE4dataB8ue170006Ev, symObjAddr: 0x5D00, symBinAddr: 0x1000067C0, symSize: 0x20 }
  - { offsetInCU: 0x13F76, offset: 0x13F76, size: 0x8, addend: 0x0, symName: __ZNKSt3__16vectorINS0_INS0_INS0_IiNS_9allocatorIiEEEENS1_IS3_EEEENS1_IS5_EEEENS1_IS7_EEE8capacityB8ue170006Ev, symObjAddr: 0x5D20, symBinAddr: 0x1000067E0, symSize: 0x40 }
  - { offsetInCU: 0x13F9B, offset: 0x13F9B, size: 0x8, addend: 0x0, symName: __ZNKSt3__16vectorINS0_INS0_INS0_IiNS_9allocatorIiEEEENS1_IS3_EEEENS1_IS5_EEEENS1_IS7_EEE9__end_capB8ue170006Ev, symObjAddr: 0x5D70, symBinAddr: 0x100006830, symSize: 0x20 }
  - { offsetInCU: 0x13FC0, offset: 0x13FC0, size: 0x8, addend: 0x0, symName: __ZNKSt3__117__compressed_pairIPNS_6vectorINS1_INS1_IiNS_9allocatorIiEEEENS2_IS4_EEEENS2_IS6_EEEENS2_IS8_EEE5firstB8ue170006Ev, symObjAddr: 0x5D90, symBinAddr: 0x100006850, symSize: 0x20 }
  - { offsetInCU: 0x13FE5, offset: 0x13FE5, size: 0x8, addend: 0x0, symName: __ZNKSt3__122__compressed_pair_elemIPNS_6vectorINS1_INS1_IiNS_9allocatorIiEEEENS2_IS4_EEEENS2_IS6_EEEELi0ELb0EE5__getB8ue170006Ev, symObjAddr: 0x5DB0, symBinAddr: 0x100006870, symSize: 0x10 }
  - { offsetInCU: 0x14023, offset: 0x14023, size: 0x8, addend: 0x0, symName: __ZNSt3__16vectorINS0_INS0_INS0_IiNS_9allocatorIiEEEENS1_IS3_EEEENS1_IS5_EEEENS1_IS7_EEE21_ConstructTransactionC1B8ue170006ERS9_m, symObjAddr: 0x5DC0, symBinAddr: 0x100006880, symSize: 0x30 }
  - { offsetInCU: 0x1406A, offset: 0x1406A, size: 0x8, addend: 0x0, symName: __ZNSt3__116allocator_traitsINS_9allocatorINS_6vectorINS2_INS2_IiNS1_IiEEEENS1_IS4_EEEENS1_IS6_EEEEEEE9constructB8ue170006IS8_JRKS8_EvEEvRS9_PT_DpOT0_, symObjAddr: 0x5DF0, symBinAddr: 0x1000068B0, symSize: 0x30 }
  - { offsetInCU: 0x140C1, offset: 0x140C1, size: 0x8, addend: 0x0, symName: __ZNSt3__16vectorINS0_INS0_INS0_IiNS_9allocatorIiEEEENS1_IS3_EEEENS1_IS5_EEEENS1_IS7_EEE21_ConstructTransactionD1B8ue170006Ev, symObjAddr: 0x5E20, symBinAddr: 0x1000068E0, symSize: 0x20 }
  - { offsetInCU: 0x140EA, offset: 0x140EA, size: 0x8, addend: 0x0, symName: __ZNSt3__16vectorINS0_INS0_INS0_IiNS_9allocatorIiEEEENS1_IS3_EEEENS1_IS5_EEEENS1_IS7_EEE21_ConstructTransactionC2B8ue170006ERS9_m, symObjAddr: 0x5E40, symBinAddr: 0x100006900, symSize: 0x40 }
  - { offsetInCU: 0x14131, offset: 0x14131, size: 0x8, addend: 0x0, symName: __ZNSt3__19allocatorINS_6vectorINS1_INS1_IiNS0_IiEEEENS0_IS3_EEEENS0_IS5_EEEEE9constructB8ue170006IS7_JRKS7_EEEvPT_DpOT0_, symObjAddr: 0x5E80, symBinAddr: 0x100006940, symSize: 0x30 }
  - { offsetInCU: 0x14186, offset: 0x14186, size: 0x8, addend: 0x0, symName: __ZNSt3__16vectorINS0_INS0_IiNS_9allocatorIiEEEENS1_IS3_EEEENS1_IS5_EEEC1ERKS7_, symObjAddr: 0x5EB0, symBinAddr: 0x100006970, symSize: 0x30 }
  - { offsetInCU: 0x141C0, offset: 0x141C0, size: 0x8, addend: 0x0, symName: __ZNSt3__16vectorINS0_INS0_IiNS_9allocatorIiEEEENS1_IS3_EEEENS1_IS5_EEEC2ERKS7_, symObjAddr: 0x5EE0, symBinAddr: 0x1000069A0, symSize: 0xA0 }
  - { offsetInCU: 0x141FA, offset: 0x141FA, size: 0x8, addend: 0x0, symName: __ZNSt3__116allocator_traitsINS_9allocatorINS_6vectorINS2_IiNS1_IiEEEENS1_IS4_EEEEEEE37select_on_container_copy_constructionB8ue170006IS7_vvEES7_RKS7_, symObjAddr: 0x5F80, symBinAddr: 0x100006A40, symSize: 0x10 }
  - { offsetInCU: 0x1422E, offset: 0x1422E, size: 0x8, addend: 0x0, symName: __ZNSt3__117__compressed_pairIPNS_6vectorINS1_IiNS_9allocatorIiEEEENS2_IS4_EEEENS2_IS6_EEEC1B8ue170006IDnS8_EEOT_OT0_, symObjAddr: 0x5F90, symBinAddr: 0x100006A50, symSize: 0x30 }
  - { offsetInCU: 0x14285, offset: 0x14285, size: 0x8, addend: 0x0, symName: __ZNSt3__16vectorINS0_INS0_IiNS_9allocatorIiEEEENS1_IS3_EEEENS1_IS5_EEE16__init_with_sizeB8ue170006IPS5_S9_EEvT_T0_m, symObjAddr: 0x5FC0, symBinAddr: 0x100006A80, symSize: 0xB0 }
  - { offsetInCU: 0x142F8, offset: 0x142F8, size: 0x8, addend: 0x0, symName: __ZNSt3__117__compressed_pairIPNS_6vectorINS1_IiNS_9allocatorIiEEEENS2_IS4_EEEENS2_IS6_EEEC2B8ue170006IDnS8_EEOT_OT0_, symObjAddr: 0x6070, symBinAddr: 0x100006B30, symSize: 0x40 }
  - { offsetInCU: 0x1434F, offset: 0x1434F, size: 0x8, addend: 0x0, symName: __ZNSt3__122__compressed_pair_elemINS_9allocatorINS_6vectorINS2_IiNS1_IiEEEENS1_IS4_EEEEEELi1ELb1EEC2B8ue170006IS7_vEEOT_, symObjAddr: 0x60B0, symBinAddr: 0x100006B70, symSize: 0x10 }
  - { offsetInCU: 0x1438F, offset: 0x1438F, size: 0x8, addend: 0x0, symName: __ZNSt3__16vectorINS0_INS0_IiNS_9allocatorIiEEEENS1_IS3_EEEENS1_IS5_EEE18__construct_at_endIPS5_S9_EEvT_T0_m, symObjAddr: 0x60C0, symBinAddr: 0x100006B80, symSize: 0x90 }
  - { offsetInCU: 0x14422, offset: 0x14422, size: 0x8, addend: 0x0, symName: __ZNSt3__14pairIPNS_6vectorINS1_IiNS_9allocatorIiEEEENS2_IS4_EEEES7_EC1B8ue170006IS7_S7_LPv0EEEOT_OT0_, symObjAddr: 0x63B0, symBinAddr: 0x100006E70, symSize: 0x30 }
  - { offsetInCU: 0x1447F, offset: 0x1447F, size: 0x8, addend: 0x0, symName: __ZNSt3__14pairIPNS_6vectorINS1_IiNS_9allocatorIiEEEENS2_IS4_EEEES7_EC2B8ue170006IS7_S7_LPv0EEEOT_OT0_, symObjAddr: 0x63E0, symBinAddr: 0x100006EA0, symSize: 0x30 }
  - { offsetInCU: 0x144DC, offset: 0x144DC, size: 0x8, addend: 0x0, symName: __ZNSt3__129_AllocatorDestroyRangeReverseINS_9allocatorINS_6vectorINS2_IiNS1_IiEEEENS1_IS4_EEEEEEPS6_EC1B8ue170006ERS7_RS8_SB_, symObjAddr: 0x6470, symBinAddr: 0x100006F30, symSize: 0x40 }
  - { offsetInCU: 0x14532, offset: 0x14532, size: 0x8, addend: 0x0, symName: __ZNSt3__116allocator_traitsINS_9allocatorINS_6vectorINS2_IiNS1_IiEEEENS1_IS4_EEEEEEE9constructB8ue170006IS6_JRS6_EvEEvRS7_PT_DpOT0_, symObjAddr: 0x64B0, symBinAddr: 0x100006F70, symSize: 0x30 }
  - { offsetInCU: 0x14589, offset: 0x14589, size: 0x8, addend: 0x0, symName: __ZNSt3__128__exception_guard_exceptionsINS_29_AllocatorDestroyRangeReverseINS_9allocatorINS_6vectorINS3_IiNS2_IiEEEENS2_IS5_EEEEEEPS7_EEE10__completeB8ue170006Ev, symObjAddr: 0x64E0, symBinAddr: 0x100006FA0, symSize: 0x20 }
  - { offsetInCU: 0x145AE, offset: 0x145AE, size: 0x8, addend: 0x0, symName: __ZNSt3__128__exception_guard_exceptionsINS_29_AllocatorDestroyRangeReverseINS_9allocatorINS_6vectorINS3_IiNS2_IiEEEENS2_IS5_EEEEEEPS7_EEED1B8ue170006Ev, symObjAddr: 0x6500, symBinAddr: 0x100006FC0, symSize: 0x20 }
  - { offsetInCU: 0x145D7, offset: 0x145D7, size: 0x8, addend: 0x0, symName: __ZNSt3__128__exception_guard_exceptionsINS_29_AllocatorDestroyRangeReverseINS_9allocatorINS_6vectorINS3_IiNS2_IiEEEENS2_IS5_EEEEEEPS7_EEEC1B8ue170006ESA_, symObjAddr: 0x6520, symBinAddr: 0x100006FE0, symSize: 0x40 }
  - { offsetInCU: 0x1460E, offset: 0x1460E, size: 0x8, addend: 0x0, symName: __ZNSt3__128__exception_guard_exceptionsINS_29_AllocatorDestroyRangeReverseINS_9allocatorINS_6vectorINS3_IiNS2_IiEEEENS2_IS5_EEEEEEPS7_EEEC2B8ue170006ESA_, symObjAddr: 0x6560, symBinAddr: 0x100007020, symSize: 0x30 }
  - { offsetInCU: 0x14645, offset: 0x14645, size: 0x8, addend: 0x0, symName: __ZNSt3__129_AllocatorDestroyRangeReverseINS_9allocatorINS_6vectorINS2_IiNS1_IiEEEENS1_IS4_EEEEEEPS6_EC2B8ue170006ERS7_RS8_SB_, symObjAddr: 0x6590, symBinAddr: 0x100007050, symSize: 0x40 }
  - { offsetInCU: 0x1469B, offset: 0x1469B, size: 0x8, addend: 0x0, symName: __ZNSt3__19allocatorINS_6vectorINS1_IiNS0_IiEEEENS0_IS3_EEEEE9constructB8ue170006IS5_JRS5_EEEvPT_DpOT0_, symObjAddr: 0x65D0, symBinAddr: 0x100007090, symSize: 0x30 }
  - { offsetInCU: 0x146F0, offset: 0x146F0, size: 0x8, addend: 0x0, symName: __ZNSt3__128__exception_guard_exceptionsINS_29_AllocatorDestroyRangeReverseINS_9allocatorINS_6vectorINS3_IiNS2_IiEEEENS2_IS5_EEEEEEPS7_EEED2B8ue170006Ev, symObjAddr: 0x6600, symBinAddr: 0x1000070C0, symSize: 0x40 }
  - { offsetInCU: 0x14719, offset: 0x14719, size: 0x8, addend: 0x0, symName: __ZNKSt3__129_AllocatorDestroyRangeReverseINS_9allocatorINS_6vectorINS2_IiNS1_IiEEEENS1_IS4_EEEEEEPS6_EclB8ue170006Ev, symObjAddr: 0x6640, symBinAddr: 0x100007100, symSize: 0x60 }
  - { offsetInCU: 0x1473E, offset: 0x1473E, size: 0x8, addend: 0x0, symName: __ZNSt3__116reverse_iteratorIPNS_6vectorINS1_IiNS_9allocatorIiEEEENS2_IS4_EEEEEC1B8ue170006ES7_, symObjAddr: 0x6710, symBinAddr: 0x1000071D0, symSize: 0x30 }
  - { offsetInCU: 0x14775, offset: 0x14775, size: 0x8, addend: 0x0, symName: __ZNSt3__116reverse_iteratorIPNS_6vectorINS1_IiNS_9allocatorIiEEEENS2_IS4_EEEEEppB8ue170006Ev, symObjAddr: 0x67A0, symBinAddr: 0x100007260, symSize: 0x20 }
  - { offsetInCU: 0x1479A, offset: 0x1479A, size: 0x8, addend: 0x0, symName: __ZNKSt3__116reverse_iteratorIPNS_6vectorINS1_IiNS_9allocatorIiEEEENS2_IS4_EEEEE4baseB8ue170006Ev, symObjAddr: 0x67C0, symBinAddr: 0x100007280, symSize: 0x20 }
  - { offsetInCU: 0x147C4, offset: 0x147C4, size: 0x8, addend: 0x0, symName: __ZNSt3__119__to_address_helperINS_16reverse_iteratorIPNS_6vectorINS2_IiNS_9allocatorIiEEEENS3_IS5_EEEEEEvE6__callB8ue170006ERKS9_, symObjAddr: 0x67E0, symBinAddr: 0x1000072A0, symSize: 0x40 }
  - { offsetInCU: 0x147E7, offset: 0x147E7, size: 0x8, addend: 0x0, symName: __ZNKSt3__116reverse_iteratorIPNS_6vectorINS1_IiNS_9allocatorIiEEEENS2_IS4_EEEEEptB8ue170006Ev, symObjAddr: 0x6820, symBinAddr: 0x1000072E0, symSize: 0x20 }
  - { offsetInCU: 0x1480C, offset: 0x1480C, size: 0x8, addend: 0x0, symName: __ZNKSt3__116reverse_iteratorIPNS_6vectorINS1_IiNS_9allocatorIiEEEENS2_IS4_EEEEEdeB8ue170006Ev, symObjAddr: 0x6840, symBinAddr: 0x100007300, symSize: 0x30 }
  - { offsetInCU: 0x1483F, offset: 0x1483F, size: 0x8, addend: 0x0, symName: __ZNSt3__116reverse_iteratorIPNS_6vectorINS1_IiNS_9allocatorIiEEEENS2_IS4_EEEEEC2B8ue170006ES7_, symObjAddr: 0x6870, symBinAddr: 0x100007330, symSize: 0x30 }
  - { offsetInCU: 0x14876, offset: 0x14876, size: 0x8, addend: 0x0, symName: __ZNSt3__118__unwrap_iter_implIPNS_6vectorINS1_IiNS_9allocatorIiEEEENS2_IS4_EEEELb1EE8__unwrapB8ue170006ES7_, symObjAddr: 0x68A0, symBinAddr: 0x100007360, symSize: 0x20 }
  - { offsetInCU: 0x14899, offset: 0x14899, size: 0x8, addend: 0x0, symName: __ZNSt3__118__unwrap_iter_implIPNS_6vectorINS1_IiNS_9allocatorIiEEEENS2_IS4_EEEELb1EE8__rewrapB8ue170006ES7_S7_, symObjAddr: 0x68C0, symBinAddr: 0x100007380, symSize: 0x60 }
  - { offsetInCU: 0x148CA, offset: 0x148CA, size: 0x8, addend: 0x0, symName: __ZNSt3__16vectorINS0_INS0_INS0_IiNS_9allocatorIiEEEENS1_IS3_EEEENS1_IS5_EEEENS1_IS7_EEE21_ConstructTransactionD2B8ue170006Ev, symObjAddr: 0x6920, symBinAddr: 0x1000073E0, symSize: 0x20 }
  - { offsetInCU: 0x148F3, offset: 0x148F3, size: 0x8, addend: 0x0, symName: __ZNSt3__128__exception_guard_exceptionsINS_6vectorINS1_INS1_INS1_IiNS_9allocatorIiEEEENS2_IS4_EEEENS2_IS6_EEEENS2_IS8_EEE16__destroy_vectorEED2B8ue170006Ev, symObjAddr: 0x6940, symBinAddr: 0x100007400, symSize: 0x40 }
  - { offsetInCU: 0x1491C, offset: 0x1491C, size: 0x8, addend: 0x0, symName: __ZNSt3__16vectorINS0_INS0_INS0_IiNS_9allocatorIiEEEENS1_IS3_EEEENS1_IS5_EEEENS1_IS7_EEE16__destroy_vectorclB8ue170006Ev, symObjAddr: 0x6980, symBinAddr: 0x100007440, symSize: 0x80 }
  - { offsetInCU: 0x14941, offset: 0x14941, size: 0x8, addend: 0x0, symName: __ZNSt3__16vectorINS0_INS0_INS0_IiNS_9allocatorIiEEEENS1_IS3_EEEENS1_IS5_EEEENS1_IS7_EEE7__clearB8ue170006Ev, symObjAddr: 0x6A00, symBinAddr: 0x1000074C0, symSize: 0x20 }
  - { offsetInCU: 0x14966, offset: 0x14966, size: 0x8, addend: 0x0, symName: __ZNKSt3__16vectorINS0_INS0_INS0_IiNS_9allocatorIiEEEENS1_IS3_EEEENS1_IS5_EEEENS1_IS7_EEE17__annotate_deleteB8ue170006Ev, symObjAddr: 0x6A20, symBinAddr: 0x1000074E0, symSize: 0xB0 }
  - { offsetInCU: 0x1498B, offset: 0x1498B, size: 0x8, addend: 0x0, symName: __ZNSt3__116allocator_traitsINS_9allocatorINS_6vectorINS2_INS2_IiNS1_IiEEEENS1_IS4_EEEENS1_IS6_EEEEEEE10deallocateB8ue170006ERS9_PS8_m, symObjAddr: 0x6AD0, symBinAddr: 0x100007590, symSize: 0x30 }
  - { offsetInCU: 0x149CD, offset: 0x149CD, size: 0x8, addend: 0x0, symName: __ZNSt3__16vectorINS0_INS0_INS0_IiNS_9allocatorIiEEEENS1_IS3_EEEENS1_IS5_EEEENS1_IS7_EEE22__base_destruct_at_endB8ue170006EPS7_, symObjAddr: 0x6B00, symBinAddr: 0x1000075C0, symSize: 0x80 }
  - { offsetInCU: 0x14A10, offset: 0x14A10, size: 0x8, addend: 0x0, symName: __ZNSt3__116allocator_traitsINS_9allocatorINS_6vectorINS2_INS2_IiNS1_IiEEEENS1_IS4_EEEENS1_IS6_EEEEEEE7destroyB8ue170006IS8_vEEvRS9_PT_, symObjAddr: 0x6B80, symBinAddr: 0x100007640, symSize: 0x30 }
  - { offsetInCU: 0x14A4D, offset: 0x14A4D, size: 0x8, addend: 0x0, symName: __ZNSt3__19allocatorINS_6vectorINS1_INS1_IiNS0_IiEEEENS0_IS3_EEEENS0_IS5_EEEEE7destroyB8ue170006EPS7_, symObjAddr: 0x6BB0, symBinAddr: 0x100007670, symSize: 0x20 }
  - { offsetInCU: 0x14A80, offset: 0x14A80, size: 0x8, addend: 0x0, symName: __ZNKSt3__16vectorINS0_INS0_INS0_IiNS_9allocatorIiEEEENS1_IS3_EEEENS1_IS5_EEEENS1_IS7_EEE4sizeB8ue170006Ev, symObjAddr: 0x6BD0, symBinAddr: 0x100007690, symSize: 0x30 }
  - { offsetInCU: 0x14AA5, offset: 0x14AA5, size: 0x8, addend: 0x0, symName: __ZNSt3__19allocatorINS_6vectorINS1_INS1_IiNS0_IiEEEENS0_IS3_EEEENS0_IS5_EEEEE10deallocateB8ue170006EPS7_m, symObjAddr: 0x6C00, symBinAddr: 0x1000076C0, symSize: 0x50 }
  - { offsetInCU: 0x14AE6, offset: 0x14AE6, size: 0x8, addend: 0x0, symName: __ZNSt3__16vectorINS0_INS0_INS0_IiNS_9allocatorIiEEEENS1_IS3_EEEENS1_IS5_EEEENS1_IS7_EEED2B8ue170006Ev, symObjAddr: 0x6C50, symBinAddr: 0x100007710, symSize: 0x40 }
  - { offsetInCU: 0x14B0F, offset: 0x14B0F, size: 0x8, addend: 0x0, symName: __ZNSt3__16vectorIiNS_9allocatorIiEEE22__construct_one_at_endB8ue170006IJRKiEEEvDpOT_, symObjAddr: 0x6C90, symBinAddr: 0x100007750, symSize: 0x90 }
  - { offsetInCU: 0x14B5C, offset: 0x14B5C, size: 0x8, addend: 0x0, symName: __ZNSt3__16vectorIiNS_9allocatorIiEEE21__push_back_slow_pathIRKiEEvOT_, symObjAddr: 0x6D20, symBinAddr: 0x1000077E0, symSize: 0xD0 }
  - { offsetInCU: 0x14BB9, offset: 0x14BB9, size: 0x8, addend: 0x0, symName: __ZNSt3__116allocator_traitsINS_9allocatorIiEEE9constructB8ue170006IiJRKiEvEEvRS2_PT_DpOT0_, symObjAddr: 0x6DF0, symBinAddr: 0x1000078B0, symSize: 0x30 }
  - { offsetInCU: 0x14C10, offset: 0x14C10, size: 0x8, addend: 0x0, symName: __ZNSt3__19allocatorIiE9constructB8ue170006IiJRKiEEEvPT_DpOT0_, symObjAddr: 0x6E20, symBinAddr: 0x1000078E0, symSize: 0x20 }
  - { offsetInCU: 0x14C64, offset: 0x14C64, size: 0x8, addend: 0x0, symName: __ZNKSt3__16vectorIiNS_9allocatorIiEEE11__recommendB8ue170006Em, symObjAddr: 0x6E40, symBinAddr: 0x100007900, symSize: 0xA0 }
  - { offsetInCU: 0x14CB8, offset: 0x14CB8, size: 0x8, addend: 0x0, symName: __ZNSt3__114__split_bufferIiRNS_9allocatorIiEEEC1EmmS3_, symObjAddr: 0x6EE0, symBinAddr: 0x1000079A0, symSize: 0x40 }
  - { offsetInCU: 0x14D0D, offset: 0x14D0D, size: 0x8, addend: 0x0, symName: __ZNSt3__114__split_bufferIiRNS_9allocatorIiEEED1Ev, symObjAddr: 0x7040, symBinAddr: 0x100007B00, symSize: 0x20 }
  - { offsetInCU: 0x14D38, offset: 0x14D38, size: 0x8, addend: 0x0, symName: __ZNSt3__114__split_bufferIiRNS_9allocatorIiEEEC2EmmS3_, symObjAddr: 0x70E0, symBinAddr: 0x100007BA0, symSize: 0xD0 }
  - { offsetInCU: 0x14DAA, offset: 0x14DAA, size: 0x8, addend: 0x0, symName: __ZNSt3__117__compressed_pairIPiRNS_9allocatorIiEEEC1B8ue170006IDnS4_EEOT_OT0_, symObjAddr: 0x71B0, symBinAddr: 0x100007C70, symSize: 0x30 }
  - { offsetInCU: 0x14E01, offset: 0x14E01, size: 0x8, addend: 0x0, symName: __ZNSt3__114__split_bufferIiRNS_9allocatorIiEEE7__allocB8ue170006Ev, symObjAddr: 0x71E0, symBinAddr: 0x100007CA0, symSize: 0x20 }
  - { offsetInCU: 0x14E26, offset: 0x14E26, size: 0x8, addend: 0x0, symName: __ZNSt3__114__split_bufferIiRNS_9allocatorIiEEE9__end_capB8ue170006Ev, symObjAddr: 0x7200, symBinAddr: 0x100007CC0, symSize: 0x20 }
  - { offsetInCU: 0x14E4B, offset: 0x14E4B, size: 0x8, addend: 0x0, symName: __ZNSt3__117__compressed_pairIPiRNS_9allocatorIiEEEC2B8ue170006IDnS4_EEOT_OT0_, symObjAddr: 0x7220, symBinAddr: 0x100007CE0, symSize: 0x40 }
  - { offsetInCU: 0x14EA2, offset: 0x14EA2, size: 0x8, addend: 0x0, symName: __ZNSt3__122__compressed_pair_elemIRNS_9allocatorIiEELi1ELb0EEC2B8ue170006IS3_vEEOT_, symObjAddr: 0x7260, symBinAddr: 0x100007D20, symSize: 0x20 }
  - { offsetInCU: 0x14EE3, offset: 0x14EE3, size: 0x8, addend: 0x0, symName: __ZNSt3__117__compressed_pairIPiRNS_9allocatorIiEEE6secondB8ue170006Ev, symObjAddr: 0x7280, symBinAddr: 0x100007D40, symSize: 0x20 }
  - { offsetInCU: 0x14F08, offset: 0x14F08, size: 0x8, addend: 0x0, symName: __ZNSt3__122__compressed_pair_elemIRNS_9allocatorIiEELi1ELb0EE5__getB8ue170006Ev, symObjAddr: 0x72A0, symBinAddr: 0x100007D60, symSize: 0x20 }
  - { offsetInCU: 0x14F2D, offset: 0x14F2D, size: 0x8, addend: 0x0, symName: __ZNSt3__117__compressed_pairIPiRNS_9allocatorIiEEE5firstB8ue170006Ev, symObjAddr: 0x72C0, symBinAddr: 0x100007D80, symSize: 0x20 }
  - { offsetInCU: 0x14F52, offset: 0x14F52, size: 0x8, addend: 0x0, symName: __ZNSt3__116reverse_iteratorIPiEC1B8ue170006ES1_, symObjAddr: 0x7350, symBinAddr: 0x100007E10, symSize: 0x30 }
  - { offsetInCU: 0x14F89, offset: 0x14F89, size: 0x8, addend: 0x0, symName: __ZNKSt3__116reverse_iteratorIPiE4baseB8ue170006Ev, symObjAddr: 0x7380, symBinAddr: 0x100007E40, symSize: 0x20 }
  - { offsetInCU: 0x14FD1, offset: 0x14FD1, size: 0x8, addend: 0x0, symName: __ZNKSt3__111__move_loopINS_17_ClassicAlgPolicyEEclB8ue170006INS_16reverse_iteratorIPiEES6_S6_EENS_4pairIT_T1_EES8_T0_S9_, symObjAddr: 0x7820, symBinAddr: 0x1000082E0, symSize: 0xA0 }
  - { offsetInCU: 0x15040, offset: 0x15040, size: 0x8, addend: 0x0, symName: __ZNSt3__18_IterOpsINS_17_ClassicAlgPolicyEE11__iter_moveB8ue170006IRNS_16reverse_iteratorIPiEEEENS_9enable_ifIXsr12is_referenceIDTdeclsr3stdE7declvalIRT_EEEEE5valueEDTclsr3stdE4movedeclsr3stdE7declvalISA_EEEEE4typeEOS9_, symObjAddr: 0x7A40, symBinAddr: 0x100008500, symSize: 0x20 }
  - { offsetInCU: 0x1506C, offset: 0x1506C, size: 0x8, addend: 0x0, symName: __ZNKSt3__116reverse_iteratorIPiEdeB8ue170006Ev, symObjAddr: 0x7A60, symBinAddr: 0x100008520, symSize: 0x30 }
  - { offsetInCU: 0x1509F, offset: 0x1509F, size: 0x8, addend: 0x0, symName: __ZNSt3__116reverse_iteratorIPiEppB8ue170006Ev, symObjAddr: 0x7A90, symBinAddr: 0x100008550, symSize: 0x20 }
  - { offsetInCU: 0x150C4, offset: 0x150C4, size: 0x8, addend: 0x0, symName: __ZNSt3__18_IterOpsINS_17_ClassicAlgPolicyEE25__validate_iter_referenceB8ue170006IRNS_16reverse_iteratorIPiEEEEvv, symObjAddr: 0x7AB0, symBinAddr: 0x100008570, symSize: 0x10 }
  - { offsetInCU: 0x150E2, offset: 0x150E2, size: 0x8, addend: 0x0, symName: __ZNSt3__118__unwrap_iter_implINS_16reverse_iteratorIPiEELb0EE8__unwrapB8ue170006ES3_, symObjAddr: 0x7AC0, symBinAddr: 0x100008580, symSize: 0x20 }
  - { offsetInCU: 0x1510A, offset: 0x1510A, size: 0x8, addend: 0x0, symName: __ZNSt3__14pairINS_16reverse_iteratorIPiEES3_EC1B8ue170006IS3_S3_LPv0EEEOT_OT0_, symObjAddr: 0x7AE0, symBinAddr: 0x1000085A0, symSize: 0x30 }
  - { offsetInCU: 0x15167, offset: 0x15167, size: 0x8, addend: 0x0, symName: __ZNSt3__14pairINS_16reverse_iteratorIPiEES3_EC2B8ue170006IS3_S3_LPv0EEEOT_OT0_, symObjAddr: 0x7B10, symBinAddr: 0x1000085D0, symSize: 0x40 }
  - { offsetInCU: 0x151C4, offset: 0x151C4, size: 0x8, addend: 0x0, symName: __ZNSt3__118__unwrap_iter_implINS_16reverse_iteratorIPiEELb0EE8__rewrapB8ue170006ES3_S3_, symObjAddr: 0x7B50, symBinAddr: 0x100008610, symSize: 0x30 }
  - { offsetInCU: 0x151F2, offset: 0x151F2, size: 0x8, addend: 0x0, symName: __ZNSt3__116reverse_iteratorIPiEC2B8ue170006ES1_, symObjAddr: 0x7B80, symBinAddr: 0x100008640, symSize: 0x30 }
  - { offsetInCU: 0x15229, offset: 0x15229, size: 0x8, addend: 0x0, symName: __ZNSt3__114__split_bufferIiRNS_9allocatorIiEEED2Ev, symObjAddr: 0x7BB0, symBinAddr: 0x100008670, symSize: 0x70 }
  - { offsetInCU: 0x15254, offset: 0x15254, size: 0x8, addend: 0x0, symName: __ZNSt3__114__split_bufferIiRNS_9allocatorIiEEE5clearB8ue170006Ev, symObjAddr: 0x7C20, symBinAddr: 0x1000086E0, symSize: 0x20 }
  - { offsetInCU: 0x15279, offset: 0x15279, size: 0x8, addend: 0x0, symName: __ZNKSt3__114__split_bufferIiRNS_9allocatorIiEEE8capacityB8ue170006Ev, symObjAddr: 0x7C40, symBinAddr: 0x100008700, symSize: 0x30 }
  - { offsetInCU: 0x1529E, offset: 0x1529E, size: 0x8, addend: 0x0, symName: __ZNSt3__114__split_bufferIiRNS_9allocatorIiEEE17__destruct_at_endB8ue170006EPi, symObjAddr: 0x7C70, symBinAddr: 0x100008730, symSize: 0x30 }
  - { offsetInCU: 0x152D0, offset: 0x152D0, size: 0x8, addend: 0x0, symName: __ZNSt3__114__split_bufferIiRNS_9allocatorIiEEE17__destruct_at_endB8ue170006EPiNS_17integral_constantIbLb0EEE, symObjAddr: 0x7CA0, symBinAddr: 0x100008760, symSize: 0x80 }
  - { offsetInCU: 0x15310, offset: 0x15310, size: 0x8, addend: 0x0, symName: __ZNKSt3__114__split_bufferIiRNS_9allocatorIiEEE9__end_capB8ue170006Ev, symObjAddr: 0x7D20, symBinAddr: 0x1000087E0, symSize: 0x20 }
  - { offsetInCU: 0x15335, offset: 0x15335, size: 0x8, addend: 0x0, symName: __ZNKSt3__117__compressed_pairIPiRNS_9allocatorIiEEE5firstB8ue170006Ev, symObjAddr: 0x7D40, symBinAddr: 0x100008800, symSize: 0x20 }
  - { offsetInCU: 0x1535A, offset: 0x1535A, size: 0x8, addend: 0x0, symName: __ZNSt3__16vectorIiNS_9allocatorIiEEE22__construct_one_at_endB8ue170006IJiEEEvDpOT_, symObjAddr: 0x7D60, symBinAddr: 0x100008820, symSize: 0x90 }
  - { offsetInCU: 0x153A7, offset: 0x153A7, size: 0x8, addend: 0x0, symName: __ZNSt3__16vectorIiNS_9allocatorIiEEE21__push_back_slow_pathIiEEvOT_, symObjAddr: 0x7DF0, symBinAddr: 0x1000088B0, symSize: 0xD0 }
  - { offsetInCU: 0x15404, offset: 0x15404, size: 0x8, addend: 0x0, symName: __ZNSt3__116allocator_traitsINS_9allocatorIiEEE9constructB8ue170006IiJiEvEEvRS2_PT_DpOT0_, symObjAddr: 0x7EC0, symBinAddr: 0x100008980, symSize: 0x30 }
  - { offsetInCU: 0x1545B, offset: 0x1545B, size: 0x8, addend: 0x0, symName: __ZNSt3__19allocatorIiE9constructB8ue170006IiJiEEEvPT_DpOT0_, symObjAddr: 0x7EF0, symBinAddr: 0x1000089B0, symSize: 0x20 }
  - { offsetInCU: 0x154B0, offset: 0x154B0, size: 0x8, addend: 0x0, symName: __ZNSt3__16vectorIiNS_9allocatorIiEEE11__make_iterB8ue170006EPi, symObjAddr: 0x7F10, symBinAddr: 0x1000089D0, symSize: 0x30 }
  - { offsetInCU: 0x154E4, offset: 0x154E4, size: 0x8, addend: 0x0, symName: __ZNSt3__111__wrap_iterIPiEC1B8ue170006ES1_, symObjAddr: 0x7F40, symBinAddr: 0x100008A00, symSize: 0x30 }
  - { offsetInCU: 0x1551B, offset: 0x1551B, size: 0x8, addend: 0x0, symName: __ZNSt3__111__wrap_iterIPiEC2B8ue170006ES1_, symObjAddr: 0x7F70, symBinAddr: 0x100008A30, symSize: 0x20 }
  - { offsetInCU: 0x1555C, offset: 0x1555C, size: 0x8, addend: 0x0, symName: '__ZZ4mainENK3$_0clEi', symObjAddr: 0x7FC0, symBinAddr: 0x100008A80, symSize: 0x20 }
  - { offsetInCU: 0x15593, offset: 0x15593, size: 0x8, addend: 0x0, symName: __ZNKSt3__111__wrap_iterIPiEdeB8ue170006Ev, symObjAddr: 0x7FE0, symBinAddr: 0x100008AA0, symSize: 0x20 }
  - { offsetInCU: 0x155B8, offset: 0x155B8, size: 0x8, addend: 0x0, symName: __ZNSt3__111__wrap_iterIPiEppB8ue170006Ev, symObjAddr: 0x8000, symBinAddr: 0x100008AC0, symSize: 0x20 }
  - { offsetInCU: 0x155DD, offset: 0x155DD, size: 0x8, addend: 0x0, symName: __ZNKSt3__111__wrap_iterIPiE4baseB8ue170006Ev, symObjAddr: 0x8060, symBinAddr: 0x100008B20, symSize: 0x20 }
  - { offsetInCU: 0x15601, offset: 0x15601, size: 0x8, addend: 0x0, symName: __ZNKSt3__19basic_iosIcNS_11char_traitsIcEEE5widenB8ue170006Ec, symObjAddr: 0x8080, symBinAddr: 0x100008B40, symSize: 0x80 }
  - { offsetInCU: 0x15669, offset: 0x15669, size: 0x8, addend: 0x0, symName: __ZNKSt3__15ctypeIcE5widenB8ue170006Ec, symObjAddr: 0x8130, symBinAddr: 0x100008BF0, symSize: 0x30 }
  - { offsetInCU: 0x1569D, offset: 0x1569D, size: 0x8, addend: 0x0, symName: __ZNSt3__112basic_stringIcNS_11char_traitsIcEENS_9allocatorIcEEEC2B8ue170006ILi0EEEPKc, symObjAddr: 0x8160, symBinAddr: 0x100008C20, symSize: 0x50 }
  - { offsetInCU: 0x156DB, offset: 0x156DB, size: 0x8, addend: 0x0, symName: __ZNSt3__117__compressed_pairINS_12basic_stringIcNS_11char_traitsIcEENS_9allocatorIcEEE5__repES5_EC1B8ue170006INS_18__default_init_tagESA_EEOT_OT0_, symObjAddr: 0x81B0, symBinAddr: 0x100008C70, symSize: 0x30 }
  - { offsetInCU: 0x15732, offset: 0x15732, size: 0x8, addend: 0x0, symName: __ZNSt3__111char_traitsIcE6lengthB8ue170006EPKc, symObjAddr: 0x81E0, symBinAddr: 0x100008CA0, symSize: 0x30 }
  - { offsetInCU: 0x15755, offset: 0x15755, size: 0x8, addend: 0x0, symName: __ZNSt3__117__compressed_pairINS_12basic_stringIcNS_11char_traitsIcEENS_9allocatorIcEEE5__repES5_EC2B8ue170006INS_18__default_init_tagESA_EEOT_OT0_, symObjAddr: 0x8210, symBinAddr: 0x100008CD0, symSize: 0x30 }
  - { offsetInCU: 0x157AC, offset: 0x157AC, size: 0x8, addend: 0x0, symName: __ZNSt3__122__compressed_pair_elemINS_12basic_stringIcNS_11char_traitsIcEENS_9allocatorIcEEE5__repELi0ELb0EEC2B8ue170006ENS_18__default_init_tagE, symObjAddr: 0x8240, symBinAddr: 0x100008D00, symSize: 0x10 }
  - { offsetInCU: 0x157E0, offset: 0x157E0, size: 0x8, addend: 0x0, symName: __ZNSt3__122__compressed_pair_elemINS_9allocatorIcEELi1ELb1EEC2B8ue170006ENS_18__default_init_tagE, symObjAddr: 0x8250, symBinAddr: 0x100008D10, symSize: 0x20 }
  - { offsetInCU: 0x15814, offset: 0x15814, size: 0x8, addend: 0x0, symName: __ZNSt3__19allocatorIcEC2B8ue170006Ev, symObjAddr: 0x8270, symBinAddr: 0x100008D30, symSize: 0x20 }
  - { offsetInCU: 0x1583D, offset: 0x1583D, size: 0x8, addend: 0x0, symName: __ZNSt3__116__non_trivial_ifILb1ENS_9allocatorIcEEEC2B8ue170006Ev, symObjAddr: 0x8290, symBinAddr: 0x100008D50, symSize: 0x10 }
  - { offsetInCU: 0x15884, offset: 0x15884, size: 0x8, addend: 0x0, symName: __ZNKSt3__113basic_ostreamIcNS_11char_traitsIcEEE6sentrycvbB8ue170006Ev, symObjAddr: 0x84B0, symBinAddr: 0x100008F70, symSize: 0x20 }
  - { offsetInCU: 0x158A9, offset: 0x158A9, size: 0x8, addend: 0x0, symName: __ZNSt3__119ostreambuf_iteratorIcNS_11char_traitsIcEEEC1B8ue170006ERNS_13basic_ostreamIcS2_EE, symObjAddr: 0x86F0, symBinAddr: 0x1000091B0, symSize: 0x30 }
  - { offsetInCU: 0x158DF, offset: 0x158DF, size: 0x8, addend: 0x0, symName: __ZNKSt3__18ios_base5flagsB8ue170006Ev, symObjAddr: 0x8720, symBinAddr: 0x1000091E0, symSize: 0x20 }
  - { offsetInCU: 0x15905, offset: 0x15905, size: 0x8, addend: 0x0, symName: __ZNKSt3__19basic_iosIcNS_11char_traitsIcEEE4fillB8ue170006Ev, symObjAddr: 0x8740, symBinAddr: 0x100009200, symSize: 0x70 }
  - { offsetInCU: 0x1592C, offset: 0x1592C, size: 0x8, addend: 0x0, symName: __ZNKSt3__119ostreambuf_iteratorIcNS_11char_traitsIcEEE6failedB8ue170006Ev, symObjAddr: 0x87B0, symBinAddr: 0x100009270, symSize: 0x20 }
  - { offsetInCU: 0x15951, offset: 0x15951, size: 0x8, addend: 0x0, symName: __ZNSt3__19basic_iosIcNS_11char_traitsIcEEE8setstateB8ue170006Ej, symObjAddr: 0x87D0, symBinAddr: 0x100009290, symSize: 0x30 }
  - { offsetInCU: 0x15984, offset: 0x15984, size: 0x8, addend: 0x0, symName: __ZNKSt3__18ios_base5widthB8ue170006Ev, symObjAddr: 0x8800, symBinAddr: 0x1000092C0, symSize: 0x20 }
  - { offsetInCU: 0x159AB, offset: 0x159AB, size: 0x8, addend: 0x0, symName: __ZNSt3__115basic_streambufIcNS_11char_traitsIcEEE5sputnB8ue170006EPKcl, symObjAddr: 0x8820, symBinAddr: 0x1000092E0, symSize: 0x30 }
  - { offsetInCU: 0x159EC, offset: 0x159EC, size: 0x8, addend: 0x0, symName: __ZNSt3__112basic_stringIcNS_11char_traitsIcEENS_9allocatorIcEEEC1B8ue170006Emc, symObjAddr: 0x8850, symBinAddr: 0x100009310, symSize: 0x30 }
  - { offsetInCU: 0x15A33, offset: 0x15A33, size: 0x8, addend: 0x0, symName: __ZNSt3__112basic_stringIcNS_11char_traitsIcEENS_9allocatorIcEEE4dataB8ue170006Ev, symObjAddr: 0x8880, symBinAddr: 0x100009340, symSize: 0x30 }
  - { offsetInCU: 0x15A57, offset: 0x15A57, size: 0x8, addend: 0x0, symName: __ZNSt3__18ios_base5widthB8ue170006El, symObjAddr: 0x88B0, symBinAddr: 0x100009370, symSize: 0x30 }
  - { offsetInCU: 0x15A9C, offset: 0x15A9C, size: 0x8, addend: 0x0, symName: __ZNSt3__112basic_stringIcNS_11char_traitsIcEENS_9allocatorIcEEEC2B8ue170006Emc, symObjAddr: 0x88E0, symBinAddr: 0x1000093A0, symSize: 0x50 }
  - { offsetInCU: 0x15AE3, offset: 0x15AE3, size: 0x8, addend: 0x0, symName: __ZNSt3__112basic_stringIcNS_11char_traitsIcEENS_9allocatorIcEEE13__get_pointerB8ue170006Ev, symObjAddr: 0x8940, symBinAddr: 0x100009400, symSize: 0x50 }
  - { offsetInCU: 0x15B08, offset: 0x15B08, size: 0x8, addend: 0x0, symName: __ZNSt3__112basic_stringIcNS_11char_traitsIcEENS_9allocatorIcEEE18__get_long_pointerB8ue170006Ev, symObjAddr: 0x8990, symBinAddr: 0x100009450, symSize: 0x20 }
  - { offsetInCU: 0x15B2D, offset: 0x15B2D, size: 0x8, addend: 0x0, symName: __ZNSt3__112basic_stringIcNS_11char_traitsIcEENS_9allocatorIcEEE19__get_short_pointerB8ue170006Ev, symObjAddr: 0x89B0, symBinAddr: 0x100009470, symSize: 0x30 }
  - { offsetInCU: 0x15B52, offset: 0x15B52, size: 0x8, addend: 0x0, symName: __ZNSt3__114pointer_traitsIPcE10pointer_toB8ue170006ERc, symObjAddr: 0x89E0, symBinAddr: 0x1000094A0, symSize: 0x10 }
  - { offsetInCU: 0x15B75, offset: 0x15B75, size: 0x8, addend: 0x0, symName: __ZNSt3__119ostreambuf_iteratorIcNS_11char_traitsIcEEEC2B8ue170006ERNS_13basic_ostreamIcS2_EE, symObjAddr: 0x89F0, symBinAddr: 0x1000094B0, symSize: 0x50 }
  - { offsetInCU: 0x15BAB, offset: 0x15BAB, size: 0x8, addend: 0x0, symName: __ZNKSt3__19basic_iosIcNS_11char_traitsIcEEE5rdbufB8ue170006Ev, symObjAddr: 0x8A40, symBinAddr: 0x100009500, symSize: 0x20 }
  - { offsetInCU: 0x15BD2, offset: 0x15BD2, size: 0x8, addend: 0x0, symName: __ZNKSt3__18ios_base5rdbufB8ue170006Ev, symObjAddr: 0x8A60, symBinAddr: 0x100009520, symSize: 0x20 }
  - { offsetInCU: 0x15BF7, offset: 0x15BF7, size: 0x8, addend: 0x0, symName: __ZNSt3__111char_traitsIcE11eq_int_typeB8ue170006Eii, symObjAddr: 0x8A80, symBinAddr: 0x100009540, symSize: 0x20 }
  - { offsetInCU: 0x15C2A, offset: 0x15C2A, size: 0x8, addend: 0x0, symName: __ZNSt3__111char_traitsIcE3eofB8ue170006Ev, symObjAddr: 0x8AA0, symBinAddr: 0x100009560, symSize: 0x10 }
  - { offsetInCU: 0x15C3D, offset: 0x15C3D, size: 0x8, addend: 0x0, symName: __ZNSt3__18ios_base8setstateB8ue170006Ej, symObjAddr: 0x8AB0, symBinAddr: 0x100009570, symSize: 0x24 }
...
